
bootrom.elf:     file format elf32-littleriscv


Disassembly of section .text:

00002000 <_entry>:
    2000:	84000137          	lui	sp,0x84000
    2004:	ff010113          	addi	sp,sp,-16 # 83fffff0 <sanctum_sm_signature+0x3e00ed0>
    2008:	00012423          	sw	zero,8(sp)
    200c:	f14022f3          	csrr	t0,mhartid
    2010:	04029063          	bnez	t0,2050 <loop>
    2014:	00b12023          	sw	a1,0(sp)
    2018:	1c4000ef          	jal	ra,21dc <bootloader>
    201c:	83c00337          	lui	t1,0x83c00

00002020 <clean_loop>:
    2020:	00230863          	beq	t1,sp,2030 <clean_done>
    2024:	00032023          	sw	zero,0(t1) # 83c00000 <sanctum_sm_signature+0x3a00ee0>
    2028:	00830313          	addi	t1,t1,8
    202c:	ff5ff06f          	j	2020 <clean_loop>

00002030 <clean_done>:
    2030:	00100293          	li	t0,1
    2034:	00512423          	sw	t0,8(sp)
    2038:	0ff0000f          	fence

0000203c <boot>:
    203c:	020000ef          	jal	ra,205c <clear_all_but_sp>
    2040:	f1402573          	csrr	a0,mhartid
    2044:	00012583          	lw	a1,0(sp)
    2048:	800002b7          	lui	t0,0x80000
    204c:	00028067          	jr	t0

00002050 <loop>:
    2050:	00812303          	lw	t1,8(sp)
    2054:	fe030ee3          	beqz	t1,2050 <loop>
    2058:	fe5ff06f          	j	203c <boot>

0000205c <clear_all_but_sp>:
    205c:	00000193          	li	gp,0
    2060:	00000213          	li	tp,0
    2064:	00000293          	li	t0,0
    2068:	00000313          	li	t1,0
    206c:	00000393          	li	t2,0
    2070:	00000413          	li	s0,0
    2074:	00000493          	li	s1,0
    2078:	00000513          	li	a0,0
    207c:	00000593          	li	a1,0
    2080:	00000613          	li	a2,0
    2084:	00000693          	li	a3,0
    2088:	00000713          	li	a4,0
    208c:	00000793          	li	a5,0
    2090:	00000813          	li	a6,0
    2094:	00000893          	li	a7,0
    2098:	00000913          	li	s2,0
    209c:	00000993          	li	s3,0
    20a0:	00000a13          	li	s4,0
    20a4:	00000a93          	li	s5,0
    20a8:	00000b13          	li	s6,0
    20ac:	00000b93          	li	s7,0
    20b0:	00000c13          	li	s8,0
    20b4:	00000c93          	li	s9,0
    20b8:	00000d13          	li	s10,0
    20bc:	00000d93          	li	s11,0
    20c0:	00000e13          	li	t3,0
    20c4:	00000e93          	li	t4,0
    20c8:	00000f13          	li	t5,0
    20cc:	00000f93          	li	t6,0
    20d0:	00008067          	ret

000020d4 <_GLOBAL_OFFSET_TABLE_>:
    20d4:	00000000 801ff020 801ff0c0 801ff120     .... ....... ...
    20e4:	801ff080 0000233c 801ff0e0 801ff040     ....<#......@...
    20f4:	ffffffff 00000000                       ........

000020fc <memcpy>:
    20fc:	00b56733          	or	a4,a0,a1
    2100:	00377713          	andi	a4,a4,3
    2104:	00050793          	mv	a5,a0
    2108:	04071263          	bnez	a4,214c <memcpy+0x50>
    210c:	ffd60793          	addi	a5,a2,-3
    2110:	00f508b3          	add	a7,a0,a5
    2114:	00050713          	mv	a4,a0
    2118:	00058693          	mv	a3,a1
    211c:	05157c63          	bleu	a7,a0,2174 <memcpy+0x78>
    2120:	0006a803          	lw	a6,0(a3)
    2124:	00470713          	addi	a4,a4,4
    2128:	00468693          	addi	a3,a3,4
    212c:	ff072e23          	sw	a6,-4(a4)
    2130:	ff1768e3          	bltu	a4,a7,2120 <memcpy+0x24>
    2134:	fff54793          	not	a5,a0
    2138:	011787b3          	add	a5,a5,a7
    213c:	ffc7f793          	andi	a5,a5,-4
    2140:	00478793          	addi	a5,a5,4
    2144:	00f585b3          	add	a1,a1,a5
    2148:	00f507b3          	add	a5,a0,a5
    214c:	00c50633          	add	a2,a0,a2
    2150:	40f606b3          	sub	a3,a2,a5
    2154:	00d586b3          	add	a3,a1,a3
    2158:	02c7f263          	bleu	a2,a5,217c <memcpy+0x80>
    215c:	00158593          	addi	a1,a1,1
    2160:	fff5c703          	lbu	a4,-1(a1)
    2164:	00178793          	addi	a5,a5,1
    2168:	fee78fa3          	sb	a4,-1(a5)
    216c:	fed598e3          	bne	a1,a3,215c <memcpy+0x60>
    2170:	00008067          	ret
    2174:	00050793          	mv	a5,a0
    2178:	fd5ff06f          	j	214c <memcpy+0x50>
    217c:	00008067          	ret

00002180 <memset>:
    2180:	00c567b3          	or	a5,a0,a2
    2184:	0037f793          	andi	a5,a5,3
    2188:	00c50633          	add	a2,a0,a2
    218c:	02078063          	beqz	a5,21ac <memset+0x2c>
    2190:	0ff5f593          	andi	a1,a1,255
    2194:	00050793          	mv	a5,a0
    2198:	04c57063          	bleu	a2,a0,21d8 <memset+0x58>
    219c:	00178793          	addi	a5,a5,1
    21a0:	feb78fa3          	sb	a1,-1(a5)
    21a4:	fef61ce3          	bne	a2,a5,219c <memset+0x1c>
    21a8:	00008067          	ret
    21ac:	0ff5f593          	andi	a1,a1,255
    21b0:	00859793          	slli	a5,a1,0x8
    21b4:	00b7e7b3          	or	a5,a5,a1
    21b8:	01079593          	slli	a1,a5,0x10
    21bc:	00f5e5b3          	or	a1,a1,a5
    21c0:	fec574e3          	bleu	a2,a0,21a8 <memset+0x28>
    21c4:	00050793          	mv	a5,a0
    21c8:	00478793          	addi	a5,a5,4
    21cc:	feb7ae23          	sw	a1,-4(a5)
    21d0:	fec7ece3          	bltu	a5,a2,21c8 <memset+0x48>
    21d4:	00008067          	ret
    21d8:	00008067          	ret

000021dc <bootloader>:
    21dc:	e9010113          	addi	sp,sp,-368
    21e0:	16912223          	sw	s1,356(sp)
    21e4:	00810493          	addi	s1,sp,8
    21e8:	16112623          	sw	ra,364(sp)
    21ec:	16812423          	sw	s0,360(sp)
    21f0:	17212023          	sw	s2,352(sp)
    21f4:	00048693          	mv	a3,s1
    21f8:	00000793          	li	a5,0
    21fc:	02000613          	li	a2,32
    2200:	fdd7c713          	xori	a4,a5,-35
    2204:	fac70713          	addi	a4,a4,-84
    2208:	00e68023          	sb	a4,0(a3)
    220c:	00178793          	addi	a5,a5,1
    2210:	00168693          	addi	a3,a3,1
    2214:	fec796e3          	bne	a5,a2,2200 <bootloader+0x24>
    2218:	00000917          	auipc	s2,0x0
    221c:	ed892903          	lw	s2,-296(s2) # 20f0 <_GLOBAL_OFFSET_TABLE_+0x1c>
    2220:	04000613          	li	a2,64
    2224:	00000597          	auipc	a1,0x0
    2228:	11c58593          	addi	a1,a1,284 # 2340 <_sanctum_dev_secret_key.1518>
    222c:	00090513          	mv	a0,s2
    2230:	ecdff0ef          	jal	ra,20fc <memcpy>
    2234:	02000613          	li	a2,32
    2238:	00000597          	auipc	a1,0x0
    223c:	14858593          	addi	a1,a1,328 # 2380 <_sanctum_dev_public_key.1520>
    2240:	00000517          	auipc	a0,0x0
    2244:	e9852503          	lw	a0,-360(a0) # 20d8 <_GLOBAL_OFFSET_TABLE_+0x4>
    2248:	eb5ff0ef          	jal	ra,20fc <memcpy>
    224c:	08810413          	addi	s0,sp,136
    2250:	04000593          	li	a1,64
    2254:	00040513          	mv	a0,s0
    2258:	4a5130ef          	jal	ra,15efc <sha3_init>
    225c:	00000797          	auipc	a5,0x0
    2260:	e8c7a783          	lw	a5,-372(a5) # 20e8 <_GLOBAL_OFFSET_TABLE_+0x14>
    2264:	0007a603          	lw	a2,0(a5)
    2268:	800005b7          	lui	a1,0x80000
    226c:	00040513          	mv	a0,s0
    2270:	4cd130ef          	jal	ra,15f3c <sha3_update>
    2274:	00040593          	mv	a1,s0
    2278:	00000517          	auipc	a0,0x0
    227c:	e6c52503          	lw	a0,-404(a0) # 20e4 <_GLOBAL_OFFSET_TABLE_+0x10>
    2280:	541130ef          	jal	ra,15fc0 <sha3_final>
    2284:	04000593          	li	a1,64
    2288:	00040513          	mv	a0,s0
    228c:	471130ef          	jal	ra,15efc <sha3_init>
    2290:	00090593          	mv	a1,s2
    2294:	00100613          	li	a2,1
    2298:	00040513          	mv	a0,s0
    229c:	4a1130ef          	jal	ra,15f3c <sha3_update>
    22a0:	00100613          	li	a2,1
    22a4:	00000597          	auipc	a1,0x0
    22a8:	e405a583          	lw	a1,-448(a1) # 20e4 <_GLOBAL_OFFSET_TABLE_+0x10>
    22ac:	00040513          	mv	a0,s0
    22b0:	48d130ef          	jal	ra,15f3c <sha3_update>
    22b4:	00040593          	mv	a1,s0
    22b8:	00048513          	mv	a0,s1
    22bc:	505130ef          	jal	ra,15fc0 <sha3_final>
    22c0:	00048613          	mv	a2,s1
    22c4:	00000597          	auipc	a1,0x0
    22c8:	e285a583          	lw	a1,-472(a1) # 20ec <_GLOBAL_OFFSET_TABLE_+0x18>
    22cc:	00000517          	auipc	a0,0x0
    22d0:	e1052503          	lw	a0,-496(a0) # 20dc <_GLOBAL_OFFSET_TABLE_+0x8>
    22d4:	0000d0ef          	jal	ra,f2d4 <ed25519_create_keypair>
    22d8:	04000613          	li	a2,64
    22dc:	00000597          	auipc	a1,0x0
    22e0:	e085a583          	lw	a1,-504(a1) # 20e4 <_GLOBAL_OFFSET_TABLE_+0x10>
    22e4:	00048513          	mv	a0,s1
    22e8:	e15ff0ef          	jal	ra,20fc <memcpy>
    22ec:	02000613          	li	a2,32
    22f0:	00000597          	auipc	a1,0x0
    22f4:	dec5a583          	lw	a1,-532(a1) # 20dc <_GLOBAL_OFFSET_TABLE_+0x8>
    22f8:	04810513          	addi	a0,sp,72
    22fc:	e01ff0ef          	jal	ra,20fc <memcpy>
    2300:	00090713          	mv	a4,s2
    2304:	00048593          	mv	a1,s1
    2308:	00000697          	auipc	a3,0x0
    230c:	dd06a683          	lw	a3,-560(a3) # 20d8 <_GLOBAL_OFFSET_TABLE_+0x4>
    2310:	06000613          	li	a2,96
    2314:	00000517          	auipc	a0,0x0
    2318:	dcc52503          	lw	a0,-564(a0) # 20e0 <_GLOBAL_OFFSET_TABLE_+0xc>
    231c:	398130ef          	jal	ra,156b4 <ed25519_sign>
    2320:	16c12083          	lw	ra,364(sp)
    2324:	16812403          	lw	s0,360(sp)
    2328:	00090023          	sb	zero,0(s2)
    232c:	16412483          	lw	s1,356(sp)
    2330:	16012903          	lw	s2,352(sp)
    2334:	17010113          	addi	sp,sp,368
    2338:	00008067          	ret

0000233c <sanctum_sm_size>:
    233c:	001ff000                                ....

00002340 <_sanctum_dev_secret_key.1518>:
    2340:	4799a040 3aface8c c9ab6306 c91e7a5e     @..G...:.c..^z..
    2350:	f6f5b454 04d8ba45 d7e713db 73706c82     T...E........lps
    2360:	b69a6a57 d1d96021 29dcaec6 60b92f85     Wj..!`.....)./.`
    2370:	833251ee ec89165a 3472a806 4a0eaa51     .Q2.Z.....r4Q..J

00002380 <_sanctum_dev_public_key.1520>:
    2380:	ffd4aa0f 83851701 9688a5ba f31f7c6f     ............o|..
    2390:	17dd6425 462bdcd7 4aa850cb 4c0b2769     %d....+F.P.Ji'.L
    23a0:	3a434347 4e472820 37202955 302e322e     GCC: (GNU) 7.2.0
    23b0:	00000000                                ....

000023b4 <fe_0>:
    23b4:	00052023          	sw	zero,0(a0)
    23b8:	00052223          	sw	zero,4(a0)
    23bc:	00052423          	sw	zero,8(a0)
    23c0:	00052623          	sw	zero,12(a0)
    23c4:	00052823          	sw	zero,16(a0)
    23c8:	00052a23          	sw	zero,20(a0)
    23cc:	00052c23          	sw	zero,24(a0)
    23d0:	00052e23          	sw	zero,28(a0)
    23d4:	02052023          	sw	zero,32(a0)
    23d8:	02052223          	sw	zero,36(a0)
    23dc:	00008067          	ret

000023e0 <fe_1>:
    23e0:	00100793          	li	a5,1
    23e4:	00f52023          	sw	a5,0(a0)
    23e8:	00052223          	sw	zero,4(a0)
    23ec:	00052423          	sw	zero,8(a0)
    23f0:	00052623          	sw	zero,12(a0)
    23f4:	00052823          	sw	zero,16(a0)
    23f8:	00052a23          	sw	zero,20(a0)
    23fc:	00052c23          	sw	zero,24(a0)
    2400:	00052e23          	sw	zero,28(a0)
    2404:	02052023          	sw	zero,32(a0)
    2408:	02052223          	sw	zero,36(a0)
    240c:	00008067          	ret

00002410 <fe_add>:
    2410:	fe010113          	addi	sp,sp,-32
    2414:	01212a23          	sw	s2,20(sp)
    2418:	01312823          	sw	s3,16(sp)
    241c:	01412623          	sw	s4,12(sp)
    2420:	01512423          	sw	s5,8(sp)
    2424:	01612223          	sw	s6,4(sp)
    2428:	00862a03          	lw	s4,8(a2)
    242c:	0045ab03          	lw	s6,4(a1)
    2430:	00c62983          	lw	s3,12(a2)
    2434:	01062903          	lw	s2,16(a2)
    2438:	00462a83          	lw	s5,4(a2)
    243c:	0085ae83          	lw	t4,8(a1)
    2440:	00c5ae03          	lw	t3,12(a1)
    2444:	0105a303          	lw	t1,16(a1)
    2448:	0145a883          	lw	a7,20(a1)
    244c:	0185a803          	lw	a6,24(a1)
    2450:	01c5a683          	lw	a3,28(a1)
    2454:	0205a703          	lw	a4,32(a1)
    2458:	0245a783          	lw	a5,36(a1)
    245c:	00062f03          	lw	t5,0(a2)
    2460:	0005a583          	lw	a1,0(a1)
    2464:	00912c23          	sw	s1,24(sp)
    2468:	01462483          	lw	s1,20(a2)
    246c:	00812e23          	sw	s0,28(sp)
    2470:	01862403          	lw	s0,24(a2)
    2474:	01c62383          	lw	t2,28(a2)
    2478:	02062283          	lw	t0,32(a2)
    247c:	02462f83          	lw	t6,36(a2)
    2480:	014e8eb3          	add	t4,t4,s4
    2484:	015b0633          	add	a2,s6,s5
    2488:	013e0e33          	add	t3,t3,s3
    248c:	01230333          	add	t1,t1,s2
    2490:	01e585b3          	add	a1,a1,t5
    2494:	009888b3          	add	a7,a7,s1
    2498:	00b52023          	sw	a1,0(a0)
    249c:	00c52223          	sw	a2,4(a0)
    24a0:	01d52423          	sw	t4,8(a0)
    24a4:	01c52623          	sw	t3,12(a0)
    24a8:	00652823          	sw	t1,16(a0)
    24ac:	01152a23          	sw	a7,20(a0)
    24b0:	00880833          	add	a6,a6,s0
    24b4:	01c12403          	lw	s0,28(sp)
    24b8:	007686b3          	add	a3,a3,t2
    24bc:	00570733          	add	a4,a4,t0
    24c0:	01f787b3          	add	a5,a5,t6
    24c4:	01052c23          	sw	a6,24(a0)
    24c8:	00d52e23          	sw	a3,28(a0)
    24cc:	02e52023          	sw	a4,32(a0)
    24d0:	02f52223          	sw	a5,36(a0)
    24d4:	01812483          	lw	s1,24(sp)
    24d8:	01412903          	lw	s2,20(sp)
    24dc:	01012983          	lw	s3,16(sp)
    24e0:	00c12a03          	lw	s4,12(sp)
    24e4:	00812a83          	lw	s5,8(sp)
    24e8:	00412b03          	lw	s6,4(sp)
    24ec:	02010113          	addi	sp,sp,32
    24f0:	00008067          	ret

000024f4 <fe_cmov>:
    24f4:	fe010113          	addi	sp,sp,-32
    24f8:	01312823          	sw	s3,16(sp)
    24fc:	01412623          	sw	s4,12(sp)
    2500:	01512423          	sw	s5,8(sp)
    2504:	01612223          	sw	s6,4(sp)
    2508:	0005a783          	lw	a5,0(a1)
    250c:	0045ae83          	lw	t4,4(a1)
    2510:	0085ae03          	lw	t3,8(a1)
    2514:	00c5a303          	lw	t1,12(a1)
    2518:	00052b03          	lw	s6,0(a0)
    251c:	00452a83          	lw	s5,4(a0)
    2520:	00852a03          	lw	s4,8(a0)
    2524:	00c52983          	lw	s3,12(a0)
    2528:	01212a23          	sw	s2,20(sp)
    252c:	0105a883          	lw	a7,16(a1)
    2530:	01052903          	lw	s2,16(a0)
    2534:	00812e23          	sw	s0,28(sp)
    2538:	01712023          	sw	s7,0(sp)
    253c:	01852403          	lw	s0,24(a0)
    2540:	0185ab83          	lw	s7,24(a1)
    2544:	00912c23          	sw	s1,24(sp)
    2548:	40c00633          	neg	a2,a2
    254c:	0145a803          	lw	a6,20(a1)
    2550:	01c5a683          	lw	a3,28(a1)
    2554:	0205a703          	lw	a4,32(a1)
    2558:	0245af03          	lw	t5,36(a1)
    255c:	01452483          	lw	s1,20(a0)
    2560:	01c52383          	lw	t2,28(a0)
    2564:	02052283          	lw	t0,32(a0)
    2568:	02452f83          	lw	t6,36(a0)
    256c:	00fb47b3          	xor	a5,s6,a5
    2570:	01daceb3          	xor	t4,s5,t4
    2574:	01ca4e33          	xor	t3,s4,t3
    2578:	0069c333          	xor	t1,s3,t1
    257c:	011948b3          	xor	a7,s2,a7
    2580:	00c7f7b3          	and	a5,a5,a2
    2584:	00cefeb3          	and	t4,t4,a2
    2588:	00ce7e33          	and	t3,t3,a2
    258c:	00c37333          	and	t1,t1,a2
    2590:	017445b3          	xor	a1,s0,s7
    2594:	00c8f8b3          	and	a7,a7,a2
    2598:	0167c7b3          	xor	a5,a5,s6
    259c:	015eceb3          	xor	t4,t4,s5
    25a0:	014e4e33          	xor	t3,t3,s4
    25a4:	01334333          	xor	t1,t1,s3
    25a8:	0104c833          	xor	a6,s1,a6
    25ac:	00c5f5b3          	and	a1,a1,a2
    25b0:	0128c8b3          	xor	a7,a7,s2
    25b4:	00d3c6b3          	xor	a3,t2,a3
    25b8:	00e2c733          	xor	a4,t0,a4
    25bc:	01efcf33          	xor	t5,t6,t5
    25c0:	00f52023          	sw	a5,0(a0)
    25c4:	01d52223          	sw	t4,4(a0)
    25c8:	01c52423          	sw	t3,8(a0)
    25cc:	00652623          	sw	t1,12(a0)
    25d0:	01152823          	sw	a7,16(a0)
    25d4:	00c87833          	and	a6,a6,a2
    25d8:	00c6f6b3          	and	a3,a3,a2
    25dc:	00c77733          	and	a4,a4,a2
    25e0:	0085c5b3          	xor	a1,a1,s0
    25e4:	00cf7633          	and	a2,t5,a2
    25e8:	01c12403          	lw	s0,28(sp)
    25ec:	00984833          	xor	a6,a6,s1
    25f0:	0076c6b3          	xor	a3,a3,t2
    25f4:	00574733          	xor	a4,a4,t0
    25f8:	01f64633          	xor	a2,a2,t6
    25fc:	01052a23          	sw	a6,20(a0)
    2600:	00b52c23          	sw	a1,24(a0)
    2604:	00d52e23          	sw	a3,28(a0)
    2608:	02e52023          	sw	a4,32(a0)
    260c:	02c52223          	sw	a2,36(a0)
    2610:	01812483          	lw	s1,24(sp)
    2614:	01412903          	lw	s2,20(sp)
    2618:	01012983          	lw	s3,16(sp)
    261c:	00c12a03          	lw	s4,12(sp)
    2620:	00812a83          	lw	s5,8(sp)
    2624:	00412b03          	lw	s6,4(sp)
    2628:	00012b83          	lw	s7,0(sp)
    262c:	02010113          	addi	sp,sp,32
    2630:	00008067          	ret

00002634 <fe_cswap>:
    2634:	0105a303          	lw	t1,16(a1)
    2638:	01052f03          	lw	t5,16(a0)
    263c:	fd010113          	addi	sp,sp,-48
    2640:	02812623          	sw	s0,44(sp)
    2644:	0145a883          	lw	a7,20(a1)
    2648:	006f4433          	xor	s0,t5,t1
    264c:	01452f03          	lw	t5,20(a0)
    2650:	0185a803          	lw	a6,24(a1)
    2654:	01c5a683          	lw	a3,28(a1)
    2658:	011f43b3          	xor	t2,t5,a7
    265c:	01852f03          	lw	t5,24(a0)
    2660:	03312023          	sw	s3,32(sp)
    2664:	01412e23          	sw	s4,28(sp)
    2668:	010f42b3          	xor	t0,t5,a6
    266c:	01c52f03          	lw	t5,28(a0)
    2670:	01712823          	sw	s7,16(sp)
    2674:	01812623          	sw	s8,12(sp)
    2678:	01912423          	sw	s9,8(sp)
    267c:	01a12223          	sw	s10,4(sp)
    2680:	01b12023          	sw	s11,0(sp)
    2684:	0005aa03          	lw	s4,0(a1)
    2688:	0045a983          	lw	s3,4(a1)
    268c:	0085ae83          	lw	t4,8(a1)
    2690:	00c5ae03          	lw	t3,12(a1)
    2694:	0205a703          	lw	a4,32(a1)
    2698:	0245a783          	lw	a5,36(a1)
    269c:	00052d83          	lw	s11,0(a0)
    26a0:	00452d03          	lw	s10,4(a0)
    26a4:	00852c83          	lw	s9,8(a0)
    26a8:	00c52c03          	lw	s8,12(a0)
    26ac:	00df4fb3          	xor	t6,t5,a3
    26b0:	02452b83          	lw	s7,36(a0)
    26b4:	02052f03          	lw	t5,32(a0)
    26b8:	02912423          	sw	s1,40(sp)
    26bc:	03212223          	sw	s2,36(sp)
    26c0:	01512c23          	sw	s5,24(sp)
    26c4:	01612a23          	sw	s6,20(sp)
    26c8:	40c00633          	neg	a2,a2
    26cc:	014dcb33          	xor	s6,s11,s4
    26d0:	013d4ab3          	xor	s5,s10,s3
    26d4:	01dcc933          	xor	s2,s9,t4
    26d8:	01cc44b3          	xor	s1,s8,t3
    26dc:	00fbcbb3          	xor	s7,s7,a5
    26e0:	00ef4f33          	xor	t5,t5,a4
    26e4:	00cb7b33          	and	s6,s6,a2
    26e8:	00cafab3          	and	s5,s5,a2
    26ec:	00c97933          	and	s2,s2,a2
    26f0:	00c4f4b3          	and	s1,s1,a2
    26f4:	00c47433          	and	s0,s0,a2
    26f8:	00c3f3b3          	and	t2,t2,a2
    26fc:	00c2f2b3          	and	t0,t0,a2
    2700:	00cfffb3          	and	t6,t6,a2
    2704:	00cf7f33          	and	t5,t5,a2
    2708:	00cbf633          	and	a2,s7,a2
    270c:	01052b83          	lw	s7,16(a0)
    2710:	00834333          	xor	t1,t1,s0
    2714:	016dcdb3          	xor	s11,s11,s6
    2718:	008bcbb3          	xor	s7,s7,s0
    271c:	01752823          	sw	s7,16(a0)
    2720:	01452b83          	lw	s7,20(a0)
    2724:	02c12403          	lw	s0,44(sp)
    2728:	015d4d33          	xor	s10,s10,s5
    272c:	007bcbb3          	xor	s7,s7,t2
    2730:	01752a23          	sw	s7,20(a0)
    2734:	01852b83          	lw	s7,24(a0)
    2738:	012cccb3          	xor	s9,s9,s2
    273c:	009c4c33          	xor	s8,s8,s1
    2740:	005bcbb3          	xor	s7,s7,t0
    2744:	01752c23          	sw	s7,24(a0)
    2748:	01c52b83          	lw	s7,28(a0)
    274c:	01b52023          	sw	s11,0(a0)
    2750:	01a52223          	sw	s10,4(a0)
    2754:	01fbcbb3          	xor	s7,s7,t6
    2758:	01752e23          	sw	s7,28(a0)
    275c:	02052b83          	lw	s7,32(a0)
    2760:	01952423          	sw	s9,8(a0)
    2764:	01852623          	sw	s8,12(a0)
    2768:	01ebcbb3          	xor	s7,s7,t5
    276c:	03752023          	sw	s7,32(a0)
    2770:	02452b83          	lw	s7,36(a0)
    2774:	016a4a33          	xor	s4,s4,s6
    2778:	0159c9b3          	xor	s3,s3,s5
    277c:	00cbcbb3          	xor	s7,s7,a2
    2780:	03752223          	sw	s7,36(a0)
    2784:	012eceb3          	xor	t4,t4,s2
    2788:	009e4e33          	xor	t3,t3,s1
    278c:	0078c8b3          	xor	a7,a7,t2
    2790:	00584833          	xor	a6,a6,t0
    2794:	01f6c6b3          	xor	a3,a3,t6
    2798:	01e74733          	xor	a4,a4,t5
    279c:	00c7c7b3          	xor	a5,a5,a2
    27a0:	0145a023          	sw	s4,0(a1)
    27a4:	0135a223          	sw	s3,4(a1)
    27a8:	02812483          	lw	s1,40(sp)
    27ac:	02412903          	lw	s2,36(sp)
    27b0:	02012983          	lw	s3,32(sp)
    27b4:	01c12a03          	lw	s4,28(sp)
    27b8:	01812a83          	lw	s5,24(sp)
    27bc:	01d5a423          	sw	t4,8(a1)
    27c0:	01c5a623          	sw	t3,12(a1)
    27c4:	0065a823          	sw	t1,16(a1)
    27c8:	0115aa23          	sw	a7,20(a1)
    27cc:	0105ac23          	sw	a6,24(a1)
    27d0:	00d5ae23          	sw	a3,28(a1)
    27d4:	02e5a023          	sw	a4,32(a1)
    27d8:	02f5a223          	sw	a5,36(a1)
    27dc:	01412b03          	lw	s6,20(sp)
    27e0:	01012b83          	lw	s7,16(sp)
    27e4:	00c12c03          	lw	s8,12(sp)
    27e8:	00812c83          	lw	s9,8(sp)
    27ec:	00412d03          	lw	s10,4(sp)
    27f0:	00012d83          	lw	s11,0(sp)
    27f4:	03010113          	addi	sp,sp,48
    27f8:	00008067          	ret

000027fc <fe_copy>:
    27fc:	0005af03          	lw	t5,0(a1)
    2800:	0045ae83          	lw	t4,4(a1)
    2804:	0085ae03          	lw	t3,8(a1)
    2808:	00c5a303          	lw	t1,12(a1)
    280c:	0105a883          	lw	a7,16(a1)
    2810:	0145a803          	lw	a6,20(a1)
    2814:	0185a603          	lw	a2,24(a1)
    2818:	01c5a683          	lw	a3,28(a1)
    281c:	0205a703          	lw	a4,32(a1)
    2820:	0245a783          	lw	a5,36(a1)
    2824:	01e52023          	sw	t5,0(a0)
    2828:	01d52223          	sw	t4,4(a0)
    282c:	01c52423          	sw	t3,8(a0)
    2830:	00652623          	sw	t1,12(a0)
    2834:	01152823          	sw	a7,16(a0)
    2838:	01052a23          	sw	a6,20(a0)
    283c:	00c52c23          	sw	a2,24(a0)
    2840:	00d52e23          	sw	a3,28(a0)
    2844:	02e52023          	sw	a4,32(a0)
    2848:	02f52223          	sw	a5,36(a0)
    284c:	00008067          	ret

00002850 <fe_frombytes>:
    2850:	fb010113          	addi	sp,sp,-80
    2854:	05312023          	sw	s3,64(sp)
    2858:	03512c23          	sw	s5,56(sp)
    285c:	03612a23          	sw	s6,52(sp)
    2860:	03712823          	sw	s7,48(sp)
    2864:	03a12223          	sw	s10,36(sp)
    2868:	03b12023          	sw	s11,32(sp)
    286c:	04812623          	sw	s0,76(sp)
    2870:	04912423          	sw	s1,72(sp)
    2874:	05212223          	sw	s2,68(sp)
    2878:	03412e23          	sw	s4,60(sp)
    287c:	03812623          	sw	s8,44(sp)
    2880:	03912423          	sw	s9,40(sp)
    2884:	01f5c783          	lbu	a5,31(a1)
    2888:	01e5c703          	lbu	a4,30(a1)
    288c:	01d5c683          	lbu	a3,29(a1)
    2890:	01079793          	slli	a5,a5,0x10
    2894:	00871713          	slli	a4,a4,0x8
    2898:	00e7e7b3          	or	a5,a5,a4
    289c:	00d7e7b3          	or	a5,a5,a3
    28a0:	02000737          	lui	a4,0x2000
    28a4:	ffc70693          	addi	a3,a4,-4 # 1fffffc <sha3+0x1fe9fa4>
    28a8:	00279793          	slli	a5,a5,0x2
    28ac:	01000637          	lui	a2,0x1000
    28b0:	00d7f7b3          	and	a5,a5,a3
    28b4:	00c78db3          	add	s11,a5,a2
    28b8:	00fdb833          	sltu	a6,s11,a5
    28bc:	00781813          	slli	a6,a6,0x7
    28c0:	019dd293          	srli	t0,s11,0x19
    28c4:	005862b3          	or	t0,a6,t0
    28c8:	01300393          	li	t2,19
    28cc:	025382b3          	mul	t0,t2,t0
    28d0:	00b5c483          	lbu	s1,11(a1)
    28d4:	00c5ce03          	lbu	t3,12(a1)
    28d8:	0115c683          	lbu	a3,17(a1)
    28dc:	0105c803          	lbu	a6,16(a1)
    28e0:	0125cc03          	lbu	s8,18(a1)
    28e4:	0135cc83          	lbu	s9,19(a1)
    28e8:	0185c403          	lbu	s0,24(a1)
    28ec:	0195c303          	lbu	t1,25(a1)
    28f0:	010e1e13          	slli	t3,t3,0x10
    28f4:	00849493          	slli	s1,s1,0x8
    28f8:	00869693          	slli	a3,a3,0x8
    28fc:	0045cf03          	lbu	t5,4(a1)
    2900:	00a5ce83          	lbu	t4,10(a1)
    2904:	0175c883          	lbu	a7,23(a1)
    2908:	00f12e23          	sw	a5,28(sp)
    290c:	0055c903          	lbu	s2,5(a1)
    2910:	0065cf83          	lbu	t6,6(a1)
    2914:	00512223          	sw	t0,4(sp)
    2918:	0106e6b3          	or	a3,a3,a6
    291c:	0085c283          	lbu	t0,8(a1)
    2920:	01c4e4b3          	or	s1,s1,t3
    2924:	010c1c13          	slli	s8,s8,0x10
    2928:	0015ce03          	lbu	t3,1(a1)
    292c:	0095ca03          	lbu	s4,9(a1)
    2930:	0025c383          	lbu	t2,2(a1)
    2934:	00dc6c33          	or	s8,s8,a3
    2938:	01031313          	slli	t1,t1,0x10
    293c:	018c9693          	slli	a3,s9,0x18
    2940:	00841413          	slli	s0,s0,0x8
    2944:	0186e6b3          	or	a3,a3,s8
    2948:	00646433          	or	s0,s0,t1
    294c:	00712423          	sw	t2,8(sp)
    2950:	00068793          	mv	a5,a3
    2954:	00d5c383          	lbu	t2,13(a1)
    2958:	0035c683          	lbu	a3,3(a1)
    295c:	01d4e4b3          	or	s1,s1,t4
    2960:	01146433          	or	s0,s0,a7
    2964:	01c5ce83          	lbu	t4,28(a1)
    2968:	01b5c883          	lbu	a7,27(a1)
    296c:	010f9f93          	slli	t6,t6,0x10
    2970:	00891913          	slli	s2,s2,0x8
    2974:	0005c803          	lbu	a6,0(a1)
    2978:	00f5c983          	lbu	s3,15(a1)
    297c:	01f96933          	or	s2,s2,t6
    2980:	00e5cf83          	lbu	t6,14(a1)
    2984:	00d12623          	sw	a3,12(sp)
    2988:	00712823          	sw	t2,16(sp)
    298c:	0075c683          	lbu	a3,7(a1)
    2990:	0145c383          	lbu	t2,20(a1)
    2994:	01e96933          	or	s2,s2,t5
    2998:	0165c303          	lbu	t1,22(a1)
    299c:	0155cf03          	lbu	t5,21(a1)
    29a0:	00889893          	slli	a7,a7,0x8
    29a4:	01a5c583          	lbu	a1,26(a1)
    29a8:	010e9e93          	slli	t4,t4,0x10
    29ac:	00691b93          	slli	s7,s2,0x6
    29b0:	01d8eeb3          	or	t4,a7,t4
    29b4:	008e1e13          	slli	t3,t3,0x8
    29b8:	01012883          	lw	a7,16(sp)
    29bc:	00cb8d33          	add	s10,s7,a2
    29c0:	008f9f93          	slli	t6,t6,0x8
    29c4:	010e6e33          	or	t3,t3,a6
    29c8:	01099993          	slli	s3,s3,0x10
    29cc:	00812803          	lw	a6,8(sp)
    29d0:	00349b13          	slli	s6,s1,0x3
    29d4:	00712a23          	sw	t2,20(sp)
    29d8:	00b12c23          	sw	a1,24(sp)
    29dc:	013fe9b3          	or	s3,t6,s3
    29e0:	017d35b3          	sltu	a1,s10,s7
    29e4:	00cb0cb3          	add	s9,s6,a2
    29e8:	00058393          	mv	t2,a1
    29ec:	0119e9b3          	or	s3,s3,a7
    29f0:	01a95913          	srli	s2,s2,0x1a
    29f4:	01412883          	lw	a7,20(sp)
    29f8:	00541a93          	slli	s5,s0,0x5
    29fc:	00f12023          	sw	a5,0(sp)
    2a00:	016cb5b3          	sltu	a1,s9,s6
    2a04:	01238933          	add	s2,t2,s2
    2a08:	00829293          	slli	t0,t0,0x8
    2a0c:	01081393          	slli	t2,a6,0x10
    2a10:	01031313          	slli	t1,t1,0x10
    2a14:	00c12803          	lw	a6,12(sp)
    2a18:	010a1a13          	slli	s4,s4,0x10
    2a1c:	01d4d493          	srli	s1,s1,0x1d
    2a20:	008f1f13          	slli	t5,t5,0x8
    2a24:	00ca8c33          	add	s8,s5,a2
    2a28:	009584b3          	add	s1,a1,s1
    2a2c:	006f6f33          	or	t5,t5,t1
    2a30:	00012583          	lw	a1,0(sp)
    2a34:	0142ea33          	or	s4,t0,s4
    2a38:	00c78633          	add	a2,a5,a2
    2a3c:	00da6a33          	or	s4,s4,a3
    2a40:	015c37b3          	sltu	a5,s8,s5
    2a44:	011f66b3          	or	a3,t5,a7
    2a48:	01b45413          	srli	s0,s0,0x1b
    2a4c:	01812883          	lw	a7,24(sp)
    2a50:	00878433          	add	s0,a5,s0
    2a54:	01c3ee33          	or	t3,t2,t3
    2a58:	01881793          	slli	a5,a6,0x18
    2a5c:	019d5393          	srli	t2,s10,0x19
    2a60:	00791813          	slli	a6,s2,0x7
    2a64:	00d12423          	sw	a3,8(sp)
    2a68:	007863b3          	or	t2,a6,t2
    2a6c:	00b635b3          	sltu	a1,a2,a1
    2a70:	00769813          	slli	a6,a3,0x7
    2a74:	00412683          	lw	a3,4(sp)
    2a78:	011eeeb3          	or	t4,t4,a7
    2a7c:	00759593          	slli	a1,a1,0x7
    2a80:	01965f93          	srli	t6,a2,0x19
    2a84:	01f5efb3          	or	t6,a1,t6
    2a88:	01c7ee33          	or	t3,a5,t3
    2a8c:	004e9593          	slli	a1,t4,0x4
    2a90:	01ced793          	srli	a5,t4,0x1c
    2a94:	41995e93          	srai	t4,s2,0x19
    2a98:	01c68e33          	add	t3,a3,t3
    2a9c:	00749313          	slli	t1,s1,0x7
    2aa0:	000e8693          	mv	a3,t4
    2aa4:	019cd293          	srli	t0,s9,0x19
    2aa8:	4194de93          	srai	t4,s1,0x19
    2aac:	01d12623          	sw	t4,12(sp)
    2ab0:	005362b3          	or	t0,t1,t0
    2ab4:	005a1313          	slli	t1,s4,0x5
    2ab8:	01ba5a13          	srli	s4,s4,0x1b
    2abc:	01468a33          	add	s4,a3,s4
    2ac0:	00c12683          	lw	a3,12(sp)
    2ac4:	00741893          	slli	a7,s0,0x7
    2ac8:	019c5f13          	srli	t5,s8,0x19
    2acc:	01e8ef33          	or	t5,a7,t5
    2ad0:	00299893          	slli	a7,s3,0x2
    2ad4:	01e9d993          	srli	s3,s3,0x1e
    2ad8:	013689b3          	add	s3,a3,s3
    2adc:	00812683          	lw	a3,8(sp)
    2ae0:	41945413          	srai	s0,s0,0x19
    2ae4:	00812823          	sw	s0,16(sp)
    2ae8:	0196d693          	srli	a3,a3,0x19
    2aec:	00d12423          	sw	a3,8(sp)
    2af0:	01012683          	lw	a3,16(sp)
    2af4:	00638333          	add	t1,t2,t1
    2af8:	010f8833          	add	a6,t6,a6
    2afc:	00f687b3          	add	a5,a3,a5
    2b00:	00412683          	lw	a3,4(sp)
    2b04:	007333b3          	sltu	t2,t1,t2
    2b08:	01f83fb3          	sltu	t6,a6,t6
    2b0c:	00de36b3          	sltu	a3,t3,a3
    2b10:	00d12223          	sw	a3,4(sp)
    2b14:	00812683          	lw	a3,8(sp)
    2b18:	01438a33          	add	s4,t2,s4
    2b1c:	00ee0eb3          	add	t4,t3,a4
    2b20:	00df83b3          	add	t2,t6,a3
    2b24:	00412683          	lw	a3,4(sp)
    2b28:	00e30933          	add	s2,t1,a4
    2b2c:	01cebfb3          	sltu	t6,t4,t3
    2b30:	00e80433          	add	s0,a6,a4
    2b34:	011288b3          	add	a7,t0,a7
    2b38:	00bf05b3          	add	a1,t5,a1
    2b3c:	00df8fb3          	add	t6,t6,a3
    2b40:	006936b3          	sltu	a3,s2,t1
    2b44:	00e884b3          	add	s1,a7,a4
    2b48:	01e5bf33          	sltu	t5,a1,t5
    2b4c:	00e58733          	add	a4,a1,a4
    2b50:	01468a33          	add	s4,a3,s4
    2b54:	010436b3          	sltu	a3,s0,a6
    2b58:	00ff07b3          	add	a5,t5,a5
    2b5c:	007683b3          	add	t2,a3,t2
    2b60:	fe000f37          	lui	t5,0xfe000
    2b64:	00b736b3          	sltu	a3,a4,a1
    2b68:	00f687b3          	add	a5,a3,a5
    2b6c:	01bf7db3          	and	s11,t5,s11
    2b70:	01af7d33          	and	s10,t5,s10
    2b74:	019f7cb3          	and	s9,t5,s9
    2b78:	00cf7633          	and	a2,t5,a2
    2b7c:	018f7c33          	and	s8,t5,s8
    2b80:	006a1f13          	slli	t5,s4,0x6
    2b84:	01e12223          	sw	t5,4(sp)
    2b88:	00679f13          	slli	t5,a5,0x6
    2b8c:	01c12783          	lw	a5,28(sp)
    2b90:	0058b2b3          	sltu	t0,a7,t0
    2b94:	013289b3          	add	s3,t0,s3
    2b98:	41b78db3          	sub	s11,a5,s11
    2b9c:	00012783          	lw	a5,0(sp)
    2ba0:	0114b2b3          	sltu	t0,s1,a7
    2ba4:	013282b3          	add	t0,t0,s3
    2ba8:	40c78633          	sub	a2,a5,a2
    2bac:	00412783          	lw	a5,4(sp)
    2bb0:	00629293          	slli	t0,t0,0x6
    2bb4:	00512423          	sw	t0,8(sp)
    2bb8:	01a95a13          	srli	s4,s2,0x1a
    2bbc:	0147ea33          	or	s4,a5,s4
    2bc0:	00812783          	lw	a5,8(sp)
    2bc4:	00639393          	slli	t2,t2,0x6
    2bc8:	00712623          	sw	t2,12(sp)
    2bcc:	01a4d293          	srli	t0,s1,0x1a
    2bd0:	0057e2b3          	or	t0,a5,t0
    2bd4:	00c12783          	lw	a5,12(sp)
    2bd8:	01e12823          	sw	t5,16(sp)
    2bdc:	01a45393          	srli	t2,s0,0x1a
    2be0:	fc0009b7          	lui	s3,0xfc000
    2be4:	0077e3b3          	or	t2,a5,t2
    2be8:	01012783          	lw	a5,16(sp)
    2bec:	0089f433          	and	s0,s3,s0
    2bf0:	006f9693          	slli	a3,t6,0x6
    2bf4:	01a75f13          	srli	t5,a4,0x1a
    2bf8:	01aedf93          	srli	t6,t4,0x1a
    2bfc:	40880833          	sub	a6,a6,s0
    2c00:	04c12403          	lw	s0,76(sp)
    2c04:	0129f933          	and	s2,s3,s2
    2c08:	0099f4b3          	and	s1,s3,s1
    2c0c:	41ab8d33          	sub	s10,s7,s10
    2c10:	419b0cb3          	sub	s9,s6,s9
    2c14:	418a8c33          	sub	s8,s5,s8
    2c18:	01d9feb3          	and	t4,s3,t4
    2c1c:	00e9f733          	and	a4,s3,a4
    2c20:	01f6efb3          	or	t6,a3,t6
    2c24:	01e7ef33          	or	t5,a5,t5
    2c28:	019a0cb3          	add	s9,s4,s9
    2c2c:	01af8d33          	add	s10,t6,s10
    2c30:	41230333          	sub	t1,t1,s2
    2c34:	409888b3          	sub	a7,a7,s1
    2c38:	01838c33          	add	s8,t2,s8
    2c3c:	01bf0db3          	add	s11,t5,s11
    2c40:	41de0eb3          	sub	t4,t3,t4
    2c44:	00c28633          	add	a2,t0,a2
    2c48:	40e585b3          	sub	a1,a1,a4
    2c4c:	01a52223          	sw	s10,4(a0)
    2c50:	01952623          	sw	s9,12(a0)
    2c54:	01852e23          	sw	s8,28(a0)
    2c58:	03b52223          	sw	s11,36(a0)
    2c5c:	04812483          	lw	s1,72(sp)
    2c60:	04412903          	lw	s2,68(sp)
    2c64:	04012983          	lw	s3,64(sp)
    2c68:	03c12a03          	lw	s4,60(sp)
    2c6c:	03812a83          	lw	s5,56(sp)
    2c70:	03412b03          	lw	s6,52(sp)
    2c74:	01d52023          	sw	t4,0(a0)
    2c78:	00652423          	sw	t1,8(a0)
    2c7c:	01152823          	sw	a7,16(a0)
    2c80:	00c52a23          	sw	a2,20(a0)
    2c84:	01052c23          	sw	a6,24(a0)
    2c88:	02b52023          	sw	a1,32(a0)
    2c8c:	03012b83          	lw	s7,48(sp)
    2c90:	02c12c03          	lw	s8,44(sp)
    2c94:	02812c83          	lw	s9,40(sp)
    2c98:	02412d03          	lw	s10,36(sp)
    2c9c:	02012d83          	lw	s11,32(sp)
    2ca0:	05010113          	addi	sp,sp,80
    2ca4:	00008067          	ret

00002ca8 <fe_mul>:
    2ca8:	02462683          	lw	a3,36(a2) # 1000024 <sha3+0xfe9fcc>
    2cac:	01462283          	lw	t0,20(a2)
    2cb0:	f4010113          	addi	sp,sp,-192
    2cb4:	0a812e23          	sw	s0,188(sp)
    2cb8:	00c5a703          	lw	a4,12(a1)
    2cbc:	0045a403          	lw	s0,4(a1)
    2cc0:	00068e13          	mv	t3,a3
    2cc4:	00512223          	sw	t0,4(sp)
    2cc8:	00269293          	slli	t0,a3,0x2
    2ccc:	01c282b3          	add	t0,t0,t3
    2cd0:	0b512423          	sw	s5,168(sp)
    2cd4:	00171893          	slli	a7,a4,0x1
    2cd8:	00141a93          	slli	s5,s0,0x1
    2cdc:	00229293          	slli	t0,t0,0x2
    2ce0:	00462803          	lw	a6,4(a2)
    2ce4:	0005a783          	lw	a5,0(a1)
    2ce8:	0a912c23          	sw	s1,184(sp)
    2cec:	0b212a23          	sw	s2,180(sp)
    2cf0:	0b312823          	sw	s3,176(sp)
    2cf4:	0b412623          	sw	s4,172(sp)
    2cf8:	0b612223          	sw	s6,164(sp)
    2cfc:	0b712023          	sw	s7,160(sp)
    2d00:	09812e23          	sw	s8,156(sp)
    2d04:	09a12a23          	sw	s10,148(sp)
    2d08:	01062c03          	lw	s8,16(a2)
    2d0c:	09b12823          	sw	s11,144(sp)
    2d10:	09912c23          	sw	s9,152(sp)
    2d14:	0085ad83          	lw	s11,8(a1)
    2d18:	01c62a03          	lw	s4,28(a2)
    2d1c:	0145ab83          	lw	s7,20(a1)
    2d20:	00c62f83          	lw	t6,12(a2)
    2d24:	00062383          	lw	t2,0(a2)
    2d28:	0185a483          	lw	s1,24(a1)
    2d2c:	41c289b3          	sub	s3,t0,t3
    2d30:	0105ae83          	lw	t4,16(a1)
    2d34:	02062b03          	lw	s6,32(a2)
    2d38:	00862f03          	lw	t5,8(a2)
    2d3c:	02e12623          	sw	a4,44(sp)
    2d40:	03112a23          	sw	a7,52(sp)
    2d44:	03512823          	sw	s5,48(sp)
    2d48:	01862c83          	lw	s9,24(a2)
    2d4c:	01c5a283          	lw	t0,28(a1)
    2d50:	0205ad03          	lw	s10,32(a1)
    2d54:	002b1713          	slli	a4,s6,0x2
    2d58:	00512e23          	sw	t0,28(sp)
    2d5c:	00129913          	slli	s2,t0,0x1
    2d60:	00412283          	lw	t0,4(sp)
    2d64:	03212c23          	sw	s2,56(sp)
    2d68:	0245a903          	lw	s2,36(a1)
    2d6c:	00229593          	slli	a1,t0,0x2
    2d70:	01670633          	add	a2,a4,s6
    2d74:	005585b3          	add	a1,a1,t0
    2d78:	00259593          	slli	a1,a1,0x2
    2d7c:	00261613          	slli	a2,a2,0x2
    2d80:	05612e23          	sw	s6,92(sp)
    2d84:	41660633          	sub	a2,a2,s6
    2d88:	40558b33          	sub	s6,a1,t0
    2d8c:	00191593          	slli	a1,s2,0x1
    2d90:	04b12023          	sw	a1,64(sp)
    2d94:	002c1593          	slli	a1,s8,0x2
    2d98:	018585b3          	add	a1,a1,s8
    2d9c:	00259593          	slli	a1,a1,0x2
    2da0:	418585b3          	sub	a1,a1,s8
    2da4:	002a1713          	slli	a4,s4,0x2
    2da8:	04b12c23          	sw	a1,88(sp)
    2dac:	01470733          	add	a4,a4,s4
    2db0:	03012583          	lw	a1,48(sp)
    2db4:	00271713          	slli	a4,a4,0x2
    2db8:	03878333          	mul	t1,a5,s8
    2dbc:	41470733          	sub	a4,a4,s4
    2dc0:	00e12623          	sw	a4,12(sp)
    2dc4:	03212e23          	sw	s2,60(sp)
    2dc8:	000f0913          	mv	s2,t5
    2dcc:	00c12023          	sw	a2,0(sp)
    2dd0:	002c9893          	slli	a7,s9,0x2
    2dd4:	019888b3          	add	a7,a7,s9
    2dd8:	00289893          	slli	a7,a7,0x2
    2ddc:	07c12623          	sw	t3,108(sp)
    2de0:	035f86b3          	mul	a3,t6,s5
    2de4:	001b9a93          	slli	s5,s7,0x1
    2de8:	05512223          	sw	s5,68(sp)
    2dec:	06a12023          	sw	a0,96(sp)
    2df0:	002f1f13          	slli	t5,t5,0x2
    2df4:	012f0f33          	add	t5,t5,s2
    2df8:	002f1f13          	slli	t5,t5,0x2
    2dfc:	412f0f33          	sub	t5,t5,s2
    2e00:	07e12223          	sw	t5,100(sp)
    2e04:	00412f03          	lw	t5,4(sp)
    2e08:	03879733          	mulh	a4,a5,s8
    2e0c:	00d306b3          	add	a3,t1,a3
    2e10:	0066b633          	sltu	a2,a3,t1
    2e14:	41988333          	sub	t1,a7,s9
    2e18:	002f9893          	slli	a7,t6,0x2
    2e1c:	01f888b3          	add	a7,a7,t6
    2e20:	00289893          	slli	a7,a7,0x2
    2e24:	00612a23          	sw	t1,20(sp)
    2e28:	02812423          	sw	s0,40(sp)
    2e2c:	02bf95b3          	mulh	a1,t6,a1
    2e30:	00b70733          	add	a4,a4,a1
    2e34:	03b905b3          	mul	a1,s2,s11
    2e38:	00e60633          	add	a2,a2,a4
    2e3c:	03b91733          	mulh	a4,s2,s11
    2e40:	00b685b3          	add	a1,a3,a1
    2e44:	00d5b533          	sltu	a0,a1,a3
    2e48:	035992b3          	mulh	t0,s3,s5
    2e4c:	00e60633          	add	a2,a2,a4
    2e50:	00c50533          	add	a0,a0,a2
    2e54:	03598e33          	mul	t3,s3,s5
    2e58:	000f8a93          	mv	s5,t6
    2e5c:	41f88fb3          	sub	t6,a7,t6
    2e60:	00281893          	slli	a7,a6,0x2
    2e64:	010888b3          	add	a7,a7,a6
    2e68:	00289893          	slli	a7,a7,0x2
    2e6c:	05f12a23          	sw	t6,84(sp)
    2e70:	41088fb3          	sub	t6,a7,a6
    2e74:	03412883          	lw	a7,52(sp)
    2e78:	07f12423          	sw	t6,104(sp)
    2e7c:	03e786b3          	mul	a3,a5,t5
    2e80:	03512223          	sw	s5,36(sp)
    2e84:	03180633          	mul	a2,a6,a7
    2e88:	031818b3          	mulh	a7,a6,a7
    2e8c:	00c58633          	add	a2,a1,a2
    2e90:	00b635b3          	sltu	a1,a2,a1
    2e94:	03e79733          	mulh	a4,a5,t5
    2e98:	01150533          	add	a0,a0,a7
    2e9c:	00a585b3          	add	a1,a1,a0
    2ea0:	03d38f33          	mul	t5,t2,t4
    2ea4:	03d398b3          	mulh	a7,t2,t4
    2ea8:	01e60f33          	add	t5,a2,t5
    2eac:	00cf3633          	sltu	a2,t5,a2
    2eb0:	01cf0e33          	add	t3,t5,t3
    2eb4:	01ee3f33          	sltu	t5,t3,t5
    2eb8:	03a30fb3          	mul	t6,t1,s10
    2ebc:	011585b3          	add	a1,a1,a7
    2ec0:	00b605b3          	add	a1,a2,a1
    2ec4:	005585b3          	add	a1,a1,t0
    2ec8:	00bf0f33          	add	t5,t5,a1
    2ecc:	02c12583          	lw	a1,44(sp)
    2ed0:	00412283          	lw	t0,4(sp)
    2ed4:	028c0333          	mul	t1,s8,s0
    2ed8:	028c1533          	mulh	a0,s8,s0
    2edc:	000e8413          	mv	s0,t4
    2ee0:	00668333          	add	t1,a3,t1
    2ee4:	00d336b3          	sltu	a3,t1,a3
    2ee8:	03ba9eb3          	mulh	t4,s5,s11
    2eec:	00a70733          	add	a4,a4,a0
    2ef0:	00e686b3          	add	a3,a3,a4
    2ef4:	03ba8733          	mul	a4,s5,s11
    2ef8:	01d686b3          	add	a3,a3,t4
    2efc:	03012a83          	lw	s5,48(sp)
    2f00:	02b90533          	mul	a0,s2,a1
    2f04:	00e30733          	add	a4,t1,a4
    2f08:	00673333          	sltu	t1,a4,t1
    2f0c:	00d306b3          	add	a3,t1,a3
    2f10:	02b91eb3          	mulh	t4,s2,a1
    2f14:	00a70533          	add	a0,a4,a0
    2f18:	00e53733          	sltu	a4,a0,a4
    2f1c:	01d686b3          	add	a3,a3,t4
    2f20:	00d70733          	add	a4,a4,a3
    2f24:	00012683          	lw	a3,0(sp)
    2f28:	02880633          	mul	a2,a6,s0
    2f2c:	02968eb3          	mul	t4,a3,s1
    2f30:	00c50633          	add	a2,a0,a2
    2f34:	00a63533          	sltu	a0,a2,a0
    2f38:	029698b3          	mulh	a7,a3,s1
    2f3c:	01de0eb3          	add	t4,t3,t4
    2f40:	01cebe33          	sltu	t3,t4,t3
    2f44:	028816b3          	mulh	a3,a6,s0
    2f48:	011f08b3          	add	a7,t5,a7
    2f4c:	00c12f03          	lw	t5,12(sp)
    2f50:	011e08b3          	add	a7,t3,a7
    2f54:	035285b3          	mul	a1,t0,s5
    2f58:	00d70733          	add	a4,a4,a3
    2f5c:	00e50533          	add	a0,a0,a4
    2f60:	035296b3          	mulh	a3,t0,s5
    2f64:	03812283          	lw	t0,56(sp)
    2f68:	00038a93          	mv	s5,t2
    2f6c:	025f0733          	mul	a4,t5,t0
    2f70:	03979e33          	mulh	t3,a5,s9
    2f74:	00ee8733          	add	a4,t4,a4
    2f78:	01d73eb3          	sltu	t4,a4,t4
    2f7c:	01f70fb3          	add	t6,a4,t6
    2f80:	00efb733          	sltu	a4,t6,a4
    2f84:	025f12b3          	mulh	t0,t5,t0
    2f88:	00de0e33          	add	t3,t3,a3
    2f8c:	03978333          	mul	t1,a5,s9
    2f90:	005888b3          	add	a7,a7,t0
    2f94:	011e88b3          	add	a7,t4,a7
    2f98:	02412283          	lw	t0,36(sp)
    2f9c:	03bc06b3          	mul	a3,s8,s11
    2fa0:	00b305b3          	add	a1,t1,a1
    2fa4:	0065b333          	sltu	t1,a1,t1
    2fa8:	01c30333          	add	t1,t1,t3
    2fac:	03bc1eb3          	mulh	t4,s8,s11
    2fb0:	00d586b3          	add	a3,a1,a3
    2fb4:	00b6b5b3          	sltu	a1,a3,a1
    2fb8:	03738e33          	mul	t3,t2,s7
    2fbc:	01d30333          	add	t1,t1,t4
    2fc0:	006585b3          	add	a1,a1,t1
    2fc4:	03739f33          	mulh	t5,t2,s7
    2fc8:	03412383          	lw	t2,52(sp)
    2fcc:	01412303          	lw	t1,20(sp)
    2fd0:	01c60e33          	add	t3,a2,t3
    2fd4:	00ce3633          	sltu	a2,t3,a2
    2fd8:	00912c23          	sw	s1,24(sp)
    2fdc:	01312823          	sw	s3,16(sp)
    2fe0:	03212023          	sw	s2,32(sp)
    2fe4:	05612423          	sw	s6,72(sp)
    2fe8:	03a31333          	mulh	t1,t1,s10
    2fec:	01e50533          	add	a0,a0,t5
    2ff0:	00a60533          	add	a0,a2,a0
    2ff4:	02998f33          	mul	t5,s3,s1
    2ff8:	006888b3          	add	a7,a7,t1
    2ffc:	01170733          	add	a4,a4,a7
    3000:	02999633          	mulh	a2,s3,s1
    3004:	04012483          	lw	s1,64(sp)
    3008:	01ee0f33          	add	t5,t3,t5
    300c:	01cf3e33          	sltu	t3,t5,t3
    3010:	02728eb3          	mul	t4,t0,t2
    3014:	00c50633          	add	a2,a0,a2
    3018:	00ce0633          	add	a2,t3,a2
    301c:	fc000537          	lui	a0,0xfc000
    3020:	027298b3          	mulh	a7,t0,t2
    3024:	01d68eb3          	add	t4,a3,t4
    3028:	00deb6b3          	sltu	a3,t4,a3
    302c:	029b0e33          	mul	t3,s6,s1
    3030:	011585b3          	add	a1,a1,a7
    3034:	00b686b3          	add	a3,a3,a1
    3038:	01c12883          	lw	a7,28(sp)
    303c:	00012583          	lw	a1,0(sp)
    3040:	029b14b3          	mulh	s1,s6,s1
    3044:	01cf8e33          	add	t3,t6,t3
    3048:	01fe3fb3          	sltu	t6,t3,t6
    304c:	fe000b37          	lui	s6,0xfe000
    3050:	03158333          	mul	t1,a1,a7
    3054:	020008b7          	lui	a7,0x2000
    3058:	011e05b3          	add	a1,t3,a7
    305c:	01c5b2b3          	sltu	t0,a1,t3
    3060:	01a5d893          	srli	a7,a1,0x1a
    3064:	00b575b3          	and	a1,a0,a1
    3068:	40be09b3          	sub	s3,t3,a1
    306c:	00970733          	add	a4,a4,s1
    3070:	09312223          	sw	s3,132(sp)
    3074:	013e3e33          	sltu	t3,t3,s3
    3078:	02890533          	mul	a0,s2,s0
    307c:	00040993          	mv	s3,s0
    3080:	00ef8fb3          	add	t6,t6,a4
    3084:	02812403          	lw	s0,40(sp)
    3088:	01f282b3          	add	t0,t0,t6
    308c:	00629713          	slli	a4,t0,0x6
    3090:	405f8fb3          	sub	t6,t6,t0
    3094:	01c12903          	lw	s2,28(sp)
    3098:	011768b3          	or	a7,a4,a7
    309c:	41cf8733          	sub	a4,t6,t3
    30a0:	028c85b3          	mul	a1,s9,s0
    30a4:	00012403          	lw	s0,0(sp)
    30a8:	08e12023          	sw	a4,128(sp)
    30ac:	02012703          	lw	a4,32(sp)
    30b0:	02812f83          	lw	t6,40(sp)
    30b4:	006f0333          	add	t1,t5,t1
    30b8:	01e33f33          	sltu	t5,t1,t5
    30bc:	00ae8533          	add	a0,t4,a0
    30c0:	01d53eb3          	sltu	t4,a0,t4
    30c4:	01312423          	sw	s3,8(sp)
    30c8:	03241433          	mulh	s0,s0,s2
    30cc:	41a2d913          	srai	s2,t0,0x1a
    30d0:	00412283          	lw	t0,4(sp)
    30d4:	03371733          	mulh	a4,a4,s3
    30d8:	00860633          	add	a2,a2,s0
    30dc:	00cf0f33          	add	t5,t5,a2
    30e0:	034783b3          	mul	t2,a5,s4
    30e4:	00e686b3          	add	a3,a3,a4
    30e8:	00de8eb3          	add	t4,t4,a3
    30ec:	00c12683          	lw	a3,12(sp)
    30f0:	03fc9733          	mulh	a4,s9,t6
    30f4:	00b385b3          	add	a1,t2,a1
    30f8:	0075b3b3          	sltu	t2,a1,t2
    30fc:	03479633          	mulh	a2,a5,s4
    3100:	00e60633          	add	a2,a2,a4
    3104:	00c383b3          	add	t2,t2,a2
    3108:	04412603          	lw	a2,68(sp)
    310c:	03a68e33          	mul	t3,a3,s10
    3110:	02c804b3          	mul	s1,a6,a2
    3114:	01c30e33          	add	t3,t1,t3
    3118:	006e3333          	sltu	t1,t3,t1
    311c:	03a69433          	mulh	s0,a3,s10
    3120:	009504b3          	add	s1,a0,s1
    3124:	00a4b533          	sltu	a0,s1,a0
    3128:	02c816b3          	mulh	a3,a6,a2
    312c:	008f0f33          	add	t5,t5,s0
    3130:	01e30f33          	add	t5,t1,t5
    3134:	01412303          	lw	t1,20(sp)
    3138:	01812403          	lw	s0,24(sp)
    313c:	00de8eb3          	add	t4,t4,a3
    3140:	01d50eb3          	add	t4,a0,t4
    3144:	03c12503          	lw	a0,60(sp)
    3148:	03b28733          	mul	a4,t0,s11
    314c:	03b299b3          	mulh	s3,t0,s11
    3150:	00e58733          	add	a4,a1,a4
    3154:	00b735b3          	sltu	a1,a4,a1
    3158:	02a306b3          	mul	a3,t1,a0
    315c:	013383b3          	add	t2,t2,s3
    3160:	007589b3          	add	s3,a1,t2
    3164:	000a8393          	mv	t2,s5
    3168:	02a31333          	mulh	t1,t1,a0
    316c:	00de06b3          	add	a3,t3,a3
    3170:	01c6be33          	sltu	t3,a3,t3
    3174:	00d886b3          	add	a3,a7,a3
    3178:	0116b8b3          	sltu	a7,a3,a7
    317c:	028a8633          	mul	a2,s5,s0
    3180:	01000ab7          	lui	s5,0x1000
    3184:	015685b3          	add	a1,a3,s5
    3188:	00d5bab3          	sltu	s5,a1,a3
    318c:	006f0f33          	add	t5,t5,t1
    3190:	0195d293          	srli	t0,a1,0x19
    3194:	00bb75b3          	and	a1,s6,a1
    3198:	05c12b03          	lw	s6,92(sp)
    319c:	01ee0e33          	add	t3,t3,t5
    31a0:	40b686b3          	sub	a3,a3,a1
    31a4:	01c90e33          	add	t3,s2,t3
    31a8:	02c12583          	lw	a1,44(sp)
    31ac:	02839533          	mulh	a0,t2,s0
    31b0:	08d12623          	sw	a3,140(sp)
    31b4:	01c88e33          	add	t3,a7,t3
    31b8:	02c12883          	lw	a7,44(sp)
    31bc:	00c48633          	add	a2,s1,a2
    31c0:	01ca8ab3          	add	s5,s5,t3
    31c4:	009634b3          	sltu	s1,a2,s1
    31c8:	419adf13          	srai	t5,s5,0x19
    31cc:	09e12423          	sw	t5,136(sp)
    31d0:	03012f03          	lw	t5,48(sp)
    31d4:	03fb06b3          	mul	a3,s6,t6
    31d8:	00ae8eb3          	add	t4,t4,a0
    31dc:	01d484b3          	add	s1,s1,t4
    31e0:	01012e83          	lw	t4,16(sp)
    31e4:	02bc0fb3          	mul	t6,s8,a1
    31e8:	00038593          	mv	a1,t2
    31ec:	06d12e23          	sw	a3,124(sp)
    31f0:	007a9693          	slli	a3,s5,0x7
    31f4:	0056e2b3          	or	t0,a3,t0
    31f8:	00058a93          	mv	s5,a1
    31fc:	031c13b3          	mulh	t2,s8,a7
    3200:	01f70fb3          	add	t6,a4,t6
    3204:	00efb733          	sltu	a4,t6,a4
    3208:	036786b3          	mul	a3,a5,s6
    320c:	03812b03          	lw	s6,56(sp)
    3210:	007983b3          	add	t2,s3,t2
    3214:	007703b3          	add	t2,a4,t2
    3218:	02412903          	lw	s2,36(sp)
    321c:	00812983          	lw	s3,8(sp)
    3220:	05712623          	sw	s7,76(sp)
    3224:	036e8733          	mul	a4,t4,s6
    3228:	02b78533          	mul	a0,a5,a1
    322c:	00e60733          	add	a4,a2,a4
    3230:	00c735b3          	sltu	a1,a4,a2
    3234:	03df0333          	mul	t1,t5,t4
    3238:	03ea0633          	mul	a2,s4,t5
    323c:	00650333          	add	t1,a0,t1
    3240:	00a33533          	sltu	a0,t1,a0
    3244:	03579e33          	mulh	t3,a5,s5
    3248:	00c68633          	add	a2,a3,a2
    324c:	00d636b3          	sltu	a3,a2,a3
    3250:	03df1f33          	mulh	t5,t5,t4
    3254:	01ee0e33          	add	t3,t3,t5
    3258:	01c50533          	add	a0,a0,t3
    325c:	03391e33          	mulh	t3,s2,s3
    3260:	05c12f03          	lw	t5,92(sp)
    3264:	036e9eb3          	mulh	t4,t4,s6
    3268:	01c383b3          	add	t2,t2,t3
    326c:	03012e03          	lw	t3,48(sp)
    3270:	00012b03          	lw	s6,0(sp)
    3274:	01d484b3          	add	s1,s1,t4
    3278:	03ca1e33          	mulh	t3,s4,t3
    327c:	009585b3          	add	a1,a1,s1
    3280:	03e79eb3          	mulh	t4,a5,t5
    3284:	033908b3          	mul	a7,s2,s3
    3288:	01ce8eb3          	add	t4,t4,t3
    328c:	01d686b3          	add	a3,a3,t4
    3290:	02012983          	lw	s3,32(sp)
    3294:	03bc8eb3          	mul	t4,s9,s11
    3298:	011f88b3          	add	a7,t6,a7
    329c:	01f8bfb3          	sltu	t6,a7,t6
    32a0:	007f8fb3          	add	t6,t6,t2
    32a4:	036d84b3          	mul	s1,s11,s6
    32a8:	01d60933          	add	s2,a2,t4
    32ac:	00c93633          	sltu	a2,s2,a2
    32b0:	036d93b3          	mulh	t2,s11,s6
    32b4:	009304b3          	add	s1,t1,s1
    32b8:	0064b333          	sltu	t1,s1,t1
    32bc:	03ab1eb3          	mulh	t4,s6,s10
    32c0:	00750533          	add	a0,a0,t2
    32c4:	00a30333          	add	t1,t1,a0
    32c8:	03ab0e33          	mul	t3,s6,s10
    32cc:	01d585b3          	add	a1,a1,t4
    32d0:	04012b03          	lw	s6,64(sp)
    32d4:	03799533          	mulh	a0,s3,s7
    32d8:	01c70e33          	add	t3,a4,t3
    32dc:	00ee3733          	sltu	a4,t3,a4
    32e0:	00b705b3          	add	a1,a4,a1
    32e4:	03798f33          	mul	t5,s3,s7
    32e8:	00af8fb3          	add	t6,t6,a0
    32ec:	03412b83          	lw	s7,52(sp)
    32f0:	00c12503          	lw	a0,12(sp)
    32f4:	03bc9eb3          	mulh	t4,s9,s11
    32f8:	01e88f33          	add	t5,a7,t5
    32fc:	011f38b3          	sltu	a7,t5,a7
    3300:	01f88733          	add	a4,a7,t6
    3304:	06e12823          	sw	a4,112(sp)
    3308:	000a8893          	mv	a7,s5
    330c:	fc000fb7          	lui	t6,0xfc000
    3310:	05112823          	sw	a7,80(sp)
    3314:	01d686b3          	add	a3,a3,t4
    3318:	00d60733          	add	a4,a2,a3
    331c:	02ab86b3          	mul	a3,s7,a0
    3320:	02812603          	lw	a2,40(sp)
    3324:	06e12c23          	sw	a4,120(sp)
    3328:	00d489b3          	add	s3,s1,a3
    332c:	036506b3          	mul	a3,a0,s6
    3330:	030783b3          	mul	t2,a5,a6
    3334:	00de06b3          	add	a3,t3,a3
    3338:	01c6be33          	sltu	t3,a3,t3
    333c:	00d286b3          	add	a3,t0,a3
    3340:	0056b2b3          	sltu	t0,a3,t0
    3344:	02ca8733          	mul	a4,s5,a2
    3348:	02000ab7          	lui	s5,0x2000
    334c:	0099b633          	sltu	a2,s3,s1
    3350:	02880433          	mul	s0,a6,s0
    3354:	00e384b3          	add	s1,t2,a4
    3358:	01568733          	add	a4,a3,s5
    335c:	0074beb3          	sltu	t4,s1,t2
    3360:	00d73ab3          	sltu	s5,a4,a3
    3364:	03512a23          	sw	s5,52(sp)
    3368:	01a75a93          	srli	s5,a4,0x1a
    336c:	00eff733          	and	a4,t6,a4
    3370:	40e68733          	sub	a4,a3,a4
    3374:	01412f83          	lw	t6,20(sp)
    3378:	008f0433          	add	s0,t5,s0
    337c:	01e433b3          	sltu	t2,s0,t5
    3380:	06012f03          	lw	t5,96(sp)
    3384:	00812683          	lw	a3,8(sp)
    3388:	06712a23          	sw	t2,116(sp)
    338c:	00ef2c23          	sw	a4,24(t5) # fe000018 <sanctum_sm_signature+0x7de00ef8>
    3390:	00412f03          	lw	t5,4(sp)
    3394:	03f696b3          	mulh	a3,a3,t6
    3398:	037f0fb3          	mul	t6,t5,s7
    339c:	00050f13          	mv	t5,a0
    33a0:	02ab9533          	mulh	a0,s7,a0
    33a4:	01f90fb3          	add	t6,s2,t6
    33a8:	012fb933          	sltu	s2,t6,s2
    33ac:	00a30533          	add	a0,t1,a0
    33b0:	00a60533          	add	a0,a2,a0
    33b4:	02812603          	lw	a2,40(sp)
    33b8:	03079733          	mulh	a4,a5,a6
    33bc:	01812303          	lw	t1,24(sp)
    33c0:	00d50533          	add	a0,a0,a3
    33c4:	02c893b3          	mulh	t2,a7,a2
    33c8:	000f0613          	mv	a2,t5
    33cc:	036618b3          	mulh	a7,a2,s6
    33d0:	007703b3          	add	t2,a4,t2
    33d4:	00412603          	lw	a2,4(sp)
    33d8:	08812703          	lw	a4,136(sp)
    33dc:	007e83b3          	add	t2,t4,t2
    33e0:	06c12b03          	lw	s6,108(sp)
    33e4:	02681f33          	mulh	t5,a6,t1
    33e8:	011588b3          	add	a7,a1,a7
    33ec:	011e08b3          	add	a7,t3,a7
    33f0:	011708b3          	add	a7,a4,a7
    33f4:	011288b3          	add	a7,t0,a7
    33f8:	07012283          	lw	t0,112(sp)
    33fc:	03412583          	lw	a1,52(sp)
    3400:	03712a23          	sw	s7,52(sp)
    3404:	011588b3          	add	a7,a1,a7
    3408:	03761eb3          	mulh	t4,a2,s7
    340c:	01e28f33          	add	t5,t0,t5
    3410:	07412283          	lw	t0,116(sp)
    3414:	41a8d593          	srai	a1,a7,0x1a
    3418:	08b12423          	sw	a1,136(sp)
    341c:	01e28f33          	add	t5,t0,t5
    3420:	07812283          	lw	t0,120(sp)
    3424:	00689713          	slli	a4,a7,0x6
    3428:	01576ab3          	or	s5,a4,s5
    342c:	01d28eb3          	add	t4,t0,t4
    3430:	01d90eb3          	add	t4,s2,t4
    3434:	00812903          	lw	s2,8(sp)
    3438:	01012283          	lw	t0,16(sp)
    343c:	01412683          	lw	a3,20(sp)
    3440:	01c12b83          	lw	s7,28(sp)
    3444:	03b28333          	mul	t1,t0,s11
    3448:	07c12583          	lw	a1,124(sp)
    344c:	02d90e33          	mul	t3,s2,a3
    3450:	00648333          	add	t1,s1,t1
    3454:	00933733          	sltu	a4,t1,s1
    3458:	03b294b3          	mulh	s1,t0,s11
    345c:	01c98e33          	add	t3,s3,t3
    3460:	013e36b3          	sltu	a3,t3,s3
    3464:	05012983          	lw	s3,80(sp)
    3468:	00a686b3          	add	a3,a3,a0
    346c:	009383b3          	add	t2,t2,s1
    3470:	00770733          	add	a4,a4,t2
    3474:	032c13b3          	mulh	t2,s8,s2
    3478:	02812483          	lw	s1,40(sp)
    347c:	037988b3          	mul	a7,s3,s7
    3480:	007e8eb3          	add	t4,t4,t2
    3484:	05c12383          	lw	t2,92(sp)
    3488:	032c0533          	mul	a0,s8,s2
    348c:	011408b3          	add	a7,s0,a7
    3490:	0088b433          	sltu	s0,a7,s0
    3494:	037992b3          	mulh	t0,s3,s7
    3498:	00af8533          	add	a0,t6,a0
    349c:	01f53fb3          	sltu	t6,a0,t6
    34a0:	01df8fb3          	add	t6,t6,t4
    34a4:	02c12b83          	lw	s7,44(sp)
    34a8:	04412983          	lw	s3,68(sp)
    34ac:	03678633          	mul	a2,a5,s6
    34b0:	005f0f33          	add	t5,t5,t0
    34b4:	01e40433          	add	s0,s0,t5
    34b8:	02939eb3          	mulh	t4,t2,s1
    34bc:	00012383          	lw	t2,0(sp)
    34c0:	00b605b3          	add	a1,a2,a1
    34c4:	00c5b633          	sltu	a2,a1,a2
    34c8:	03679f33          	mulh	t5,a5,s6
    34cc:	04812b03          	lw	s6,72(sp)
    34d0:	037384b3          	mul	s1,t2,s7
    34d4:	02412383          	lw	t2,36(sp)
    34d8:	01df0f33          	add	t5,t5,t4
    34dc:	01e60633          	add	a2,a2,t5
    34e0:	00098f13          	mv	t5,s3
    34e4:	01012e83          	lw	t4,16(sp)
    34e8:	03698933          	mul	s2,s3,s6
    34ec:	009304b3          	add	s1,t1,s1
    34f0:	0064b333          	sltu	t1,s1,t1
    34f4:	033382b3          	mul	t0,t2,s3
    34f8:	00012383          	lw	t2,0(sp)
    34fc:	012e0933          	add	s2,t3,s2
    3500:	01c93e33          	sltu	t3,s2,t3
    3504:	036f1f33          	mulh	t5,t5,s6
    3508:	005502b3          	add	t0,a0,t0
    350c:	00a2b533          	sltu	a0,t0,a0
    3510:	037393b3          	mulh	t2,t2,s7
    3514:	01e686b3          	add	a3,a3,t5
    3518:	00de0e33          	add	t3,t3,a3
    351c:	05c12423          	sw	t3,72(sp)
    3520:	04412e03          	lw	t3,68(sp)
    3524:	01012683          	lw	a3,16(sp)
    3528:	02012f03          	lw	t5,32(sp)
    352c:	00770733          	add	a4,a4,t2
    3530:	02412383          	lw	t2,36(sp)
    3534:	03ba09b3          	mul	s3,s4,s11
    3538:	00e30733          	add	a4,t1,a4
    353c:	06e12623          	sw	a4,108(sp)
    3540:	01812303          	lw	t1,24(sp)
    3544:	03ba1a33          	mulh	s4,s4,s11
    3548:	013589b3          	add	s3,a1,s3
    354c:	00b9b5b3          	sltu	a1,s3,a1
    3550:	03c39733          	mulh	a4,t2,t3
    3554:	01460a33          	add	s4,a2,s4
    3558:	05812e03          	lw	t3,88(sp)
    355c:	014585b3          	add	a1,a1,s4
    3560:	00c12a03          	lw	s4,12(sp)
    3564:	00012603          	lw	a2,0(sp)
    3568:	00ef8fb3          	add	t6,t6,a4
    356c:	00812703          	lw	a4,8(sp)
    3570:	03c30e33          	mul	t3,t1,t3
    3574:	01f50533          	add	a0,a0,t6
    3578:	02ea03b3          	mul	t2,s4,a4
    357c:	01c90e33          	add	t3,s2,t3
    3580:	012e3933          	sltu	s2,t3,s2
    3584:	01212c23          	sw	s2,24(sp)
    3588:	03a696b3          	mulh	a3,a3,s10
    358c:	007483b3          	add	t2,s1,t2
    3590:	0093b933          	sltu	s2,t2,s1
    3594:	07212823          	sw	s2,112(sp)
    3598:	03c12903          	lw	s2,60(sp)
    359c:	03ae8eb3          	mul	t4,t4,s10
    35a0:	00d40433          	add	s0,s0,a3
    35a4:	03012683          	lw	a3,48(sp)
    35a8:	01d88eb3          	add	t4,a7,t4
    35ac:	011eb8b3          	sltu	a7,t4,a7
    35b0:	02d80fb3          	mul	t6,a6,a3
    35b4:	008888b3          	add	a7,a7,s0
    35b8:	032606b3          	mul	a3,a2,s2
    35bc:	03e78433          	mul	s0,a5,t5
    35c0:	00de86b3          	add	a3,t4,a3
    35c4:	01d6ba33          	sltu	s4,a3,t4
    35c8:	00da86b3          	add	a3,s5,a3
    35cc:	0156bab3          	sltu	s5,a3,s5
    35d0:	026f0f33          	mul	t5,t5,t1
    35d4:	01f40fb3          	add	t6,s0,t6
    35d8:	008fb633          	sltu	a2,t6,s0
    35dc:	00030413          	mv	s0,t1
    35e0:	01000337          	lui	t1,0x1000
    35e4:	00668733          	add	a4,a3,t1
    35e8:	00d73333          	sltu	t1,a4,a3
    35ec:	01975e93          	srli	t4,a4,0x19
    35f0:	06612a23          	sw	t1,116(sp)
    35f4:	05d12e23          	sw	t4,92(sp)
    35f8:	01e28f33          	add	t5,t0,t5
    35fc:	005f3eb3          	sltu	t4,t5,t0
    3600:	fe000337          	lui	t1,0xfe000
    3604:	06012283          	lw	t0,96(sp)
    3608:	00e37733          	and	a4,t1,a4
    360c:	40e686b3          	sub	a3,a3,a4
    3610:	00d2ae23          	sw	a3,28(t0) # 8000001c <sanctum_sm_signature+0xffe00efc>
    3614:	00040293          	mv	t0,s0
    3618:	05812403          	lw	s0,88(sp)
    361c:	00812703          	lw	a4,8(sp)
    3620:	03012683          	lw	a3,48(sp)
    3624:	02829933          	mulh	s2,t0,s0
    3628:	00c12403          	lw	s0,12(sp)
    362c:	02e414b3          	mulh	s1,s0,a4
    3630:	04812403          	lw	s0,72(sp)
    3634:	02012703          	lw	a4,32(sp)
    3638:	05612423          	sw	s6,72(sp)
    363c:	01240933          	add	s2,s0,s2
    3640:	01812403          	lw	s0,24(sp)
    3644:	00512c23          	sw	t0,24(sp)
    3648:	01240933          	add	s2,s0,s2
    364c:	02e79433          	mulh	s0,a5,a4
    3650:	06c12703          	lw	a4,108(sp)
    3654:	009704b3          	add	s1,a4,s1
    3658:	07012703          	lw	a4,112(sp)
    365c:	009704b3          	add	s1,a4,s1
    3660:	037c8333          	mul	t1,s9,s7
    3664:	00012b83          	lw	s7,0(sp)
    3668:	02d81733          	mulh	a4,a6,a3
    366c:	03c12683          	lw	a3,60(sp)
    3670:	00698333          	add	t1,s3,t1
    3674:	013339b3          	sltu	s3,t1,s3
    3678:	02db96b3          	mulh	a3,s7,a3
    367c:	02012b83          	lw	s7,32(sp)
    3680:	00e40433          	add	s0,s0,a4
    3684:	00860433          	add	s0,a2,s0
    3688:	03812603          	lw	a2,56(sp)
    368c:	00d888b3          	add	a7,a7,a3
    3690:	011a08b3          	add	a7,s4,a7
    3694:	08812a03          	lw	s4,136(sp)
    3698:	025b92b3          	mulh	t0,s7,t0
    369c:	04c12b83          	lw	s7,76(sp)
    36a0:	011a08b3          	add	a7,s4,a7
    36a4:	07412a03          	lw	s4,116(sp)
    36a8:	011a88b3          	add	a7,s5,a7
    36ac:	00812a83          	lw	s5,8(sp)
    36b0:	011a08b3          	add	a7,s4,a7
    36b4:	05c12a03          	lw	s4,92(sp)
    36b8:	00789713          	slli	a4,a7,0x7
    36bc:	4198d693          	srai	a3,a7,0x19
    36c0:	01476733          	or	a4,a4,s4
    36c4:	04e12e23          	sw	a4,92(sp)
    36c8:	02c12703          	lw	a4,44(sp)
    36cc:	05412883          	lw	a7,84(sp)
    36d0:	005502b3          	add	t0,a0,t0
    36d4:	02ec9cb3          	mulh	s9,s9,a4
    36d8:	005e82b3          	add	t0,t4,t0
    36dc:	06d12623          	sw	a3,108(sp)
    36e0:	01412a03          	lw	s4,20(sp)
    36e4:	00412703          	lw	a4,4(sp)
    36e8:	03160533          	mul	a0,a2,a7
    36ec:	01958cb3          	add	s9,a1,s9
    36f0:	019989b3          	add	s3,s3,s9
    36f4:	05012c83          	lw	s9,80(sp)
    36f8:	02c80eb3          	mul	t4,a6,a2
    36fc:	00ae0533          	add	a0,t3,a0
    3700:	01c53e33          	sltu	t3,a0,t3
    3704:	03161633          	mulh	a2,a2,a7
    3708:	06412883          	lw	a7,100(sp)
    370c:	01df0eb3          	add	t4,t5,t4
    3710:	01eebf33          	sltu	t5,t4,t5
    3714:	03bc86b3          	mul	a3,s9,s11
    3718:	00c90933          	add	s2,s2,a2
    371c:	012e0e33          	add	t3,t3,s2
    3720:	03812903          	lw	s2,56(sp)
    3724:	03bc9633          	mulh	a2,s9,s11
    3728:	00df86b3          	add	a3,t6,a3
    372c:	01f6bfb3          	sltu	t6,a3,t6
    3730:	00c40633          	add	a2,s0,a2
    3734:	00cf8fb3          	add	t6,t6,a2
    3738:	00412603          	lw	a2,4(sp)
    373c:	037a05b3          	mul	a1,s4,s7
    3740:	01812403          	lw	s0,24(sp)
    3744:	037a1a33          	mulh	s4,s4,s7
    3748:	00b385b3          	add	a1,t2,a1
    374c:	0075b3b3          	sltu	t2,a1,t2
    3750:	03561633          	mulh	a2,a2,s5
    3754:	014484b3          	add	s1,s1,s4
    3758:	009383b3          	add	t2,t2,s1
    375c:	031d0bb3          	mul	s7,s10,a7
    3760:	00c989b3          	add	s3,s3,a2
    3764:	032814b3          	mulh	s1,a6,s2
    3768:	01750bb3          	add	s7,a0,s7
    376c:	000a8913          	mv	s2,s5
    3770:	00abb533          	sltu	a0,s7,a0
    3774:	031d1633          	mulh	a2,s10,a7
    3778:	009282b3          	add	t0,t0,s1
    377c:	01012483          	lw	s1,16(sp)
    3780:	04812883          	lw	a7,72(sp)
    3784:	005f0f33          	add	t5,t5,t0
    3788:	03570733          	mul	a4,a4,s5
    378c:	00ce0e33          	add	t3,t3,a2
    3790:	03412a83          	lw	s5,52(sp)
    3794:	01c50533          	add	a0,a0,t3
    3798:	03412e03          	lw	t3,52(sp)
    379c:	00a12223          	sw	a0,4(sp)
    37a0:	05812503          	lw	a0,88(sp)
    37a4:	028b0b33          	mul	s6,s6,s0
    37a8:	00e30733          	add	a4,t1,a4
    37ac:	00673333          	sltu	t1,a4,t1
    37b0:	01330333          	add	t1,t1,s3
    37b4:	04c12983          	lw	s3,76(sp)
    37b8:	03548ab3          	mul	s5,s1,s5
    37bc:	01658b33          	add	s6,a1,s6
    37c0:	00bb35b3          	sltu	a1,s6,a1
    37c4:	02889433          	mulh	s0,a7,s0
    37c8:	01568ab3          	add	s5,a3,s5
    37cc:	00dab6b3          	sltu	a3,s5,a3
    37d0:	04012883          	lw	a7,64(sp)
    37d4:	03c49633          	mulh	a2,s1,t3
    37d8:	008383b3          	add	t2,t2,s0
    37dc:	007585b3          	add	a1,a1,t2
    37e0:	06812383          	lw	t2,104(sp)
    37e4:	02812483          	lw	s1,40(sp)
    37e8:	01812403          	lw	s0,24(sp)
    37ec:	033c0a33          	mul	s4,s8,s3
    37f0:	00cf8633          	add	a2,t6,a2
    37f4:	00c686b3          	add	a3,a3,a2
    37f8:	02412f83          	lw	t6,36(sp)
    37fc:	033c1633          	mulh	a2,s8,s3
    3800:	01470a33          	add	s4,a4,s4
    3804:	00ea3733          	sltu	a4,s4,a4
    3808:	03ac82b3          	mul	t0,s9,s10
    380c:	00c30333          	add	t1,t1,a2
    3810:	00670733          	add	a4,a4,t1
    3814:	01c12303          	lw	t1,28(sp)
    3818:	00012603          	lw	a2,0(sp)
    381c:	03ac9e33          	mulh	t3,s9,s10
    3820:	005e82b3          	add	t0,t4,t0
    3824:	01d2beb3          	sltu	t4,t0,t4
    3828:	031383b3          	mul	t2,t2,a7
    382c:	01cf0f33          	add	t5,t5,t3
    3830:	02000e37          	lui	t3,0x2000
    3834:	01ee8eb3          	add	t4,t4,t5
    3838:	fc000f37          	lui	t5,0xfc000
    383c:	007b83b3          	add	t2,s7,t2
    3840:	026509b3          	mul	s3,a0,t1
    3844:	01c38333          	add	t1,t2,t3
    3848:	000e0513          	mv	a0,t3
    384c:	00733c33          	sltu	s8,t1,t2
    3850:	01a35e13          	srli	t3,t1,0x1a
    3854:	006f7333          	and	t1,t5,t1
    3858:	02012f03          	lw	t5,32(sp)
    385c:	0173bbb3          	sltu	s7,t2,s7
    3860:	40638333          	sub	t1,t2,t1
    3864:	0063b3b3          	sltu	t2,t2,t1
    3868:	03260933          	mul	s2,a2,s2
    386c:	01012603          	lw	a2,16(sp)
    3870:	013b09b3          	add	s3,s6,s3
    3874:	0169bb33          	sltu	s6,s3,s6
    3878:	029f04b3          	mul	s1,t5,s1
    387c:	012a8933          	add	s2,s5,s2
    3880:	01593ab3          	sltu	s5,s2,s5
    3884:	03160f33          	mul	t5,a2,a7
    3888:	05c12603          	lw	a2,92(sp)
    388c:	01e28f33          	add	t5,t0,t5
    3890:	005f32b3          	sltu	t0,t5,t0
    3894:	01e60f33          	add	t5,a2,t5
    3898:	03f78cb3          	mul	s9,a5,t6
    389c:	028f8433          	mul	s0,t6,s0
    38a0:	00af0fb3          	add	t6,t5,a0
    38a4:	00cf3533          	sltu	a0,t5,a2
    38a8:	02a12823          	sw	a0,48(sp)
    38ac:	01efb633          	sltu	a2,t6,t5
    38b0:	fc000537          	lui	a0,0xfc000
    38b4:	02c12a23          	sw	a2,52(sp)
    38b8:	01afd613          	srli	a2,t6,0x1a
    38bc:	01f57fb3          	and	t6,a0,t6
    38c0:	41ff0f33          	sub	t5,t5,t6
    38c4:	06812f83          	lw	t6,104(sp)
    38c8:	06012503          	lw	a0,96(sp)
    38cc:	009c84b3          	add	s1,s9,s1
    38d0:	031f9fb3          	mulh	t6,t6,a7
    38d4:	03e52023          	sw	t5,32(a0) # fc000020 <sanctum_sm_signature+0x7be00f00>
    38d8:	05812503          	lw	a0,88(sp)
    38dc:	01c12f03          	lw	t5,28(sp)
    38e0:	0194bcb3          	sltu	s9,s1,s9
    38e4:	008a0433          	add	s0,s4,s0
    38e8:	01443a33          	sltu	s4,s0,s4
    38ec:	03e51f33          	mulh	t5,a0,t5
    38f0:	00412503          	lw	a0,4(sp)
    38f4:	01f50533          	add	a0,a0,t6
    38f8:	00ab8bb3          	add	s7,s7,a0
    38fc:	017c0c33          	add	s8,s8,s7
    3900:	006c1513          	slli	a0,s8,0x6
    3904:	00812f83          	lw	t6,8(sp)
    3908:	01c56e33          	or	t3,a0,t3
    390c:	418b8bb3          	sub	s7,s7,s8
    3910:	41ac5513          	srai	a0,s8,0x1a
    3914:	00012c03          	lw	s8,0(sp)
    3918:	407b83b3          	sub	t2,s7,t2
    391c:	01e585b3          	add	a1,a1,t5
    3920:	03fc1bb3          	mulh	s7,s8,t6
    3924:	02412c03          	lw	s8,36(sp)
    3928:	01012f03          	lw	t5,16(sp)
    392c:	00bb05b3          	add	a1,s6,a1
    3930:	017686b3          	add	a3,a3,s7
    3934:	00da8ab3          	add	s5,s5,a3
    3938:	02012b83          	lw	s7,32(sp)
    393c:	02812683          	lw	a3,40(sp)
    3940:	038797b3          	mulh	a5,a5,s8
    3944:	01812b03          	lw	s6,24(sp)
    3948:	02db96b3          	mulh	a3,s7,a3
    394c:	031f1f33          	mulh	t5,t5,a7
    3950:	00d787b3          	add	a5,a5,a3
    3954:	00fc8cb3          	add	s9,s9,a5
    3958:	06c12683          	lw	a3,108(sp)
    395c:	036c17b3          	mulh	a5,s8,s6
    3960:	01ee8eb3          	add	t4,t4,t5
    3964:	01d28eb3          	add	t4,t0,t4
    3968:	03012283          	lw	t0,48(sp)
    396c:	01d68eb3          	add	t4,a3,t4
    3970:	05412f03          	lw	t5,84(sp)
    3974:	01d28eb3          	add	t4,t0,t4
    3978:	03412283          	lw	t0,52(sp)
    397c:	01d288b3          	add	a7,t0,t4
    3980:	00689693          	slli	a3,a7,0x6
    3984:	04412e83          	lw	t4,68(sp)
    3988:	00c6e633          	or	a2,a3,a2
    398c:	00f70733          	add	a4,a4,a5
    3990:	01c12683          	lw	a3,28(sp)
    3994:	00c12783          	lw	a5,12(sp)
    3998:	41a8d293          	srai	t0,a7,0x1a
    399c:	02db8fb3          	mul	t6,s7,a3
    39a0:	00ea0a33          	add	s4,s4,a4
    39a4:	000b8713          	mv	a4,s7
    39a8:	00512223          	sw	t0,4(sp)
    39ac:	03d79bb3          	mulh	s7,a5,t4
    39b0:	01f40fb3          	add	t6,s0,t6
    39b4:	008fb433          	sltu	s0,t6,s0
    39b8:	03af08b3          	mul	a7,t5,s10
    39bc:	017a8ab3          	add	s5,s5,s7
    39c0:	03c12b83          	lw	s7,60(sp)
    39c4:	03af1f33          	mulh	t5,t5,s10
    39c8:	011988b3          	add	a7,s3,a7
    39cc:	0138b9b3          	sltu	s3,a7,s3
    39d0:	01e585b3          	add	a1,a1,t5
    39d4:	06412f03          	lw	t5,100(sp)
    39d8:	03d78c33          	mul	s8,a5,t4
    39dc:	00b989b3          	add	s3,s3,a1
    39e0:	01412583          	lw	a1,20(sp)
    39e4:	03b817b3          	mulh	a5,a6,s11
    39e8:	01890c33          	add	s8,s2,s8
    39ec:	012c3933          	sltu	s2,s8,s2
    39f0:	01590933          	add	s2,s2,s5
    39f4:	000b0a93          	mv	s5,s6
    39f8:	03b802b3          	mul	t0,a6,s11
    39fc:	00fc8cb3          	add	s9,s9,a5
    3a00:	037f0db3          	mul	s11,t5,s7
    3a04:	005482b3          	add	t0,s1,t0
    3a08:	0092b4b3          	sltu	s1,t0,s1
    3a0c:	01948cb3          	add	s9,s1,s9
    3a10:	010004b7          	lui	s1,0x1000
    3a14:	02d71733          	mulh	a4,a4,a3
    3a18:	01b88db3          	add	s11,a7,s11
    3a1c:	011db8b3          	sltu	a7,s11,a7
    3a20:	01be0db3          	add	s11,t3,s11
    3a24:	01cdbe33          	sltu	t3,s11,t3
    3a28:	fe0006b7          	lui	a3,0xfe000
    3a2c:	037f1f33          	mulh	t5,t5,s7
    3a30:	00ea0a33          	add	s4,s4,a4
    3a34:	01440433          	add	s0,s0,s4
    3a38:	05012a03          	lw	s4,80(sp)
    3a3c:	009d8733          	add	a4,s11,s1
    3a40:	01b734b3          	sltu	s1,a4,s11
    3a44:	01975793          	srli	a5,a4,0x19
    3a48:	00e6f733          	and	a4,a3,a4
    3a4c:	40ed8db3          	sub	s11,s11,a4
    3a50:	01e989b3          	add	s3,s3,t5
    3a54:	03658eb3          	mul	t4,a1,s6
    3a58:	013889b3          	add	s3,a7,s3
    3a5c:	02c12b03          	lw	s6,44(sp)
    3a60:	013509b3          	add	s3,a0,s3
    3a64:	013e0e33          	add	t3,t3,s3
    3a68:	01c48e33          	add	t3,s1,t3
    3a6c:	000a0893          	mv	a7,s4
    3a70:	036a14b3          	mulh	s1,s4,s6
    3a74:	01dc0eb3          	add	t4,s8,t4
    3a78:	018ebc33          	sltu	s8,t4,s8
    3a7c:	03a80733          	mul	a4,a6,s10
    3a80:	009c8cb3          	add	s9,s9,s1
    3a84:	03c12483          	lw	s1,60(sp)
    3a88:	03559bb3          	mulh	s7,a1,s5
    3a8c:	007e1593          	slli	a1,t3,0x7
    3a90:	00f5e7b3          	or	a5,a1,a5
    3a94:	00ef8733          	add	a4,t6,a4
    3a98:	01f73fb3          	sltu	t6,a4,t6
    3a9c:	419e5e13          	srai	t3,t3,0x19
    3aa0:	03a81833          	mulh	a6,a6,s10
    3aa4:	01790933          	add	s2,s2,s7
    3aa8:	012c0c33          	add	s8,s8,s2
    3aac:	00812903          	lw	s2,8(sp)
    3ab0:	036a06b3          	mul	a3,s4,s6
    3ab4:	04812b03          	lw	s6,72(sp)
    3ab8:	03812a03          	lw	s4,56(sp)
    3abc:	01040433          	add	s0,s0,a6
    3ac0:	008f8fb3          	add	t6,t6,s0
    3ac4:	01012403          	lw	s0,16(sp)
    3ac8:	029885b3          	mul	a1,a7,s1
    3acc:	00d286b3          	add	a3,t0,a3
    3ad0:	0056b2b3          	sltu	t0,a3,t0
    3ad4:	019282b3          	add	t0,t0,s9
    3ad8:	01000cb7          	lui	s9,0x1000
    3adc:	034b0f33          	mul	t5,s6,s4
    3ae0:	00b705b3          	add	a1,a4,a1
    3ae4:	00e5b733          	sltu	a4,a1,a4
    3ae8:	00b605b3          	add	a1,a2,a1
    3aec:	01958833          	add	a6,a1,s9
    3af0:	00b839b3          	sltu	s3,a6,a1
    3af4:	00c5b633          	sltu	a2,a1,a2
    3af8:	034b1bb3          	mulh	s7,s6,s4
    3afc:	fe000a37          	lui	s4,0xfe000
    3b00:	01985b13          	srli	s6,a6,0x19
    3b04:	010a7833          	and	a6,s4,a6
    3b08:	05812a03          	lw	s4,88(sp)
    3b0c:	01ee8f33          	add	t5,t4,t5
    3b10:	01df3eb3          	sltu	t4,t5,t4
    3b14:	41058833          	sub	a6,a1,a6
    3b18:	03240533          	mul	a0,s0,s2
    3b1c:	017c0c33          	add	s8,s8,s7
    3b20:	018e8c33          	add	s8,t4,s8
    3b24:	02000bb7          	lui	s7,0x2000
    3b28:	03241cb3          	mulh	s9,s0,s2
    3b2c:	00a68533          	add	a0,a3,a0
    3b30:	00d536b3          	sltu	a3,a0,a3
    3b34:	06012903          	lw	s2,96(sp)
    3b38:	03092223          	sw	a6,36(s2)
    3b3c:	04c12803          	lw	a6,76(sp)
    3b40:	02989433          	mulh	s0,a7,s1
    3b44:	019282b3          	add	t0,t0,s9
    3b48:	005686b3          	add	a3,a3,t0
    3b4c:	00412283          	lw	t0,4(sp)
    3b50:	03aa1eb3          	mulh	t4,s4,s10
    3b54:	008f8fb3          	add	t6,t6,s0
    3b58:	01f70fb3          	add	t6,a4,t6
    3b5c:	01f28fb3          	add	t6,t0,t6
    3b60:	01f60fb3          	add	t6,a2,t6
    3b64:	00012603          	lw	a2,0(sp)
    3b68:	01f989b3          	add	s3,s3,t6
    3b6c:	05412403          	lw	s0,84(sp)
    3b70:	00799713          	slli	a4,s3,0x7
    3b74:	01676b33          	or	s6,a4,s6
    3b78:	01dc0c33          	add	s8,s8,t4
    3b7c:	04012e83          	lw	t4,64(sp)
    3b80:	03060733          	mul	a4,a2,a6
    3b84:	00c12283          	lw	t0,12(sp)
    3b88:	4199d993          	srai	s3,s3,0x19
    3b8c:	03061cb3          	mulh	s9,a2,a6
    3b90:	00e50733          	add	a4,a0,a4
    3b94:	00a73533          	sltu	a0,a4,a0
    3b98:	03aa05b3          	mul	a1,s4,s10
    3b9c:	019686b3          	add	a3,a3,s9
    3ba0:	00d506b3          	add	a3,a0,a3
    3ba4:	01000cb7          	lui	s9,0x1000
    3ba8:	03d40833          	mul	a6,s0,t4
    3bac:	00bf05b3          	add	a1,t5,a1
    3bb0:	01e5bf33          	sltu	t5,a1,t5
    3bb4:	018f0f33          	add	t5,t5,s8
    3bb8:	fc000c37          	lui	s8,0xfc000
    3bbc:	03d41eb3          	mulh	t4,s0,t4
    3bc0:	01058533          	add	a0,a1,a6
    3bc4:	00b535b3          	sltu	a1,a0,a1
    3bc8:	00a78533          	add	a0,a5,a0
    3bcc:	017508b3          	add	a7,a0,s7
    3bd0:	00a8bfb3          	sltu	t6,a7,a0
    3bd4:	01a8d813          	srli	a6,a7,0x1a
    3bd8:	011c78b3          	and	a7,s8,a7
    3bdc:	00f537b3          	sltu	a5,a0,a5
    3be0:	411508b3          	sub	a7,a0,a7
    3be4:	03528633          	mul	a2,t0,s5
    3be8:	01df0f33          	add	t5,t5,t4
    3bec:	01e585b3          	add	a1,a1,t5
    3bf0:	00be05b3          	add	a1,t3,a1
    3bf4:	00b785b3          	add	a1,a5,a1
    3bf8:	00bf8fb3          	add	t6,t6,a1
    3bfc:	006f9793          	slli	a5,t6,0x6
    3c00:	01412583          	lw	a1,20(sp)
    3c04:	0107e833          	or	a6,a5,a6
    3c08:	01c12783          	lw	a5,28(sp)
    3c0c:	03529533          	mulh	a0,t0,s5
    3c10:	01192423          	sw	a7,8(s2)
    3c14:	00c70633          	add	a2,a4,a2
    3c18:	00e63733          	sltu	a4,a2,a4
    3c1c:	41afdf93          	srai	t6,t6,0x1a
    3c20:	02f588b3          	mul	a7,a1,a5
    3c24:	00a686b3          	add	a3,a3,a0
    3c28:	00d70733          	add	a4,a4,a3
    3c2c:	02f597b3          	mulh	a5,a1,a5
    3c30:	04812583          	lw	a1,72(sp)
    3c34:	011608b3          	add	a7,a2,a7
    3c38:	00c8b633          	sltu	a2,a7,a2
    3c3c:	03a586b3          	mul	a3,a1,s10
    3c40:	00f70733          	add	a4,a4,a5
    3c44:	00e60633          	add	a2,a2,a4
    3c48:	03a595b3          	mulh	a1,a1,s10
    3c4c:	00d886b3          	add	a3,a7,a3
    3c50:	0116b8b3          	sltu	a7,a3,a7
    3c54:	029a07b3          	mul	a5,s4,s1
    3c58:	00b605b3          	add	a1,a2,a1
    3c5c:	00b888b3          	add	a7,a7,a1
    3c60:	01300613          	li	a2,19
    3c64:	029a15b3          	mulh	a1,s4,s1
    3c68:	00f687b3          	add	a5,a3,a5
    3c6c:	00d7b6b3          	sltu	a3,a5,a3
    3c70:	00f807b3          	add	a5,a6,a5
    3c74:	01978733          	add	a4,a5,s9
    3c78:	0107b833          	sltu	a6,a5,a6
    3c7c:	00f73e33          	sltu	t3,a4,a5
    3c80:	fe000a37          	lui	s4,0xfe000
    3c84:	01975513          	srli	a0,a4,0x19
    3c88:	00ea7733          	and	a4,s4,a4
    3c8c:	00b885b3          	add	a1,a7,a1
    3c90:	00b686b3          	add	a3,a3,a1
    3c94:	00df8fb3          	add	t6,t6,a3
    3c98:	00060693          	mv	a3,a2
    3c9c:	03660eb3          	mul	t4,a2,s6
    3ca0:	01f80fb3          	add	t6,a6,t6
    3ca4:	01fe0fb3          	add	t6,t3,t6
    3ca8:	40e78733          	sub	a4,a5,a4
    3cac:	007f9793          	slli	a5,t6,0x7
    3cb0:	00a7e533          	or	a0,a5,a0
    3cb4:	08412783          	lw	a5,132(sp)
    3cb8:	08012803          	lw	a6,128(sp)
    3cbc:	419fdf93          	srai	t6,t6,0x19
    3cc0:	00f505b3          	add	a1,a0,a5
    3cc4:	0366bb33          	mulhu	s6,a3,s6
    3cc8:	006e8333          	add	t1,t4,t1
    3ccc:	017587b3          	add	a5,a1,s7
    3cd0:	00a5b533          	sltu	a0,a1,a0
    3cd4:	010f8fb3          	add	t6,t6,a6
    3cd8:	01d33eb3          	sltu	t4,t1,t4
    3cdc:	01f50fb3          	add	t6,a0,t6
    3ce0:	00b7b533          	sltu	a0,a5,a1
    3ce4:	01f50fb3          	add	t6,a0,t6
    3ce8:	01a7d693          	srli	a3,a5,0x1a
    3cec:	033609b3          	mul	s3,a2,s3
    3cf0:	01730633          	add	a2,t1,s7
    3cf4:	006638b3          	sltu	a7,a2,t1
    3cf8:	01a65813          	srli	a6,a2,0x1a
    3cfc:	00cc7633          	and	a2,s8,a2
    3d00:	40c30333          	sub	t1,t1,a2
    3d04:	08c12603          	lw	a2,140(sp)
    3d08:	006f9f93          	slli	t6,t6,0x6
    3d0c:	00fc77b3          	and	a5,s8,a5
    3d10:	0bc12403          	lw	s0,188(sp)
    3d14:	016989b3          	add	s3,s3,s6
    3d18:	007983b3          	add	t2,s3,t2
    3d1c:	007e8eb3          	add	t4,t4,t2
    3d20:	01d88eb3          	add	t4,a7,t4
    3d24:	006e9e93          	slli	t4,t4,0x6
    3d28:	00dfe6b3          	or	a3,t6,a3
    3d2c:	010ee833          	or	a6,t4,a6
    3d30:	01b80db3          	add	s11,a6,s11
    3d34:	40f587b3          	sub	a5,a1,a5
    3d38:	00c686b3          	add	a3,a3,a2
    3d3c:	01b92223          	sw	s11,4(s2)
    3d40:	00692023          	sw	t1,0(s2)
    3d44:	00e92623          	sw	a4,12(s2)
    3d48:	00f92823          	sw	a5,16(s2)
    3d4c:	00d92a23          	sw	a3,20(s2)
    3d50:	0b812483          	lw	s1,184(sp)
    3d54:	0b412903          	lw	s2,180(sp)
    3d58:	0b012983          	lw	s3,176(sp)
    3d5c:	0ac12a03          	lw	s4,172(sp)
    3d60:	0a812a83          	lw	s5,168(sp)
    3d64:	0a412b03          	lw	s6,164(sp)
    3d68:	0a012b83          	lw	s7,160(sp)
    3d6c:	09c12c03          	lw	s8,156(sp)
    3d70:	09812c83          	lw	s9,152(sp)
    3d74:	09412d03          	lw	s10,148(sp)
    3d78:	09012d83          	lw	s11,144(sp)
    3d7c:	0c010113          	addi	sp,sp,192
    3d80:	00008067          	ret

00003d84 <fe_mul121666>:
    3d84:	0245a883          	lw	a7,36(a1)
    3d88:	0001e7b7          	lui	a5,0x1e
    3d8c:	fa010113          	addi	sp,sp,-96
    3d90:	b4278793          	addi	a5,a5,-1214 # 1db42 <sha3+0x7aea>
    3d94:	04912c23          	sw	s1,88(sp)
    3d98:	02f884b3          	mul	s1,a7,a5
    3d9c:	03812e23          	sw	s8,60(sp)
    3da0:	0045ac03          	lw	s8,4(a1)
    3da4:	01000637          	lui	a2,0x1000
    3da8:	05212a23          	sw	s2,84(sp)
    3dac:	05712023          	sw	s7,64(sp)
    3db0:	00c5ab83          	lw	s7,12(a1)
    3db4:	fe000e37          	lui	t3,0xfe000
    3db8:	04812e23          	sw	s0,92(sp)
    3dbc:	05312823          	sw	s3,80(sp)
    3dc0:	02f89eb3          	mulh	t4,a7,a5
    3dc4:	00c48833          	add	a6,s1,a2
    3dc8:	009838b3          	sltu	a7,a6,s1
    3dcc:	05512423          	sw	s5,72(sp)
    3dd0:	01c5a983          	lw	s3,28(a1)
    3dd4:	0145aa83          	lw	s5,20(a1)
    3dd8:	0005a403          	lw	s0,0(a1)
    3ddc:	0085a383          	lw	t2,8(a1)
    3de0:	0105a283          	lw	t0,16(a1)
    3de4:	0185af83          	lw	t6,24(a1)
    3de8:	02fc0933          	mul	s2,s8,a5
    3dec:	01d888b3          	add	a7,a7,t4
    3df0:	0205af03          	lw	t5,32(a1)
    3df4:	01985713          	srli	a4,a6,0x19
    3df8:	00789593          	slli	a1,a7,0x7
    3dfc:	010e7833          	and	a6,t3,a6
    3e00:	00e5e733          	or	a4,a1,a4
    3e04:	410485b3          	sub	a1,s1,a6
    3e08:	03b12823          	sw	s11,48(sp)
    3e0c:	03a12a23          	sw	s10,52(sp)
    3e10:	02fb84b3          	mul	s1,s7,a5
    3e14:	00c90eb3          	add	t4,s2,a2
    3e18:	012eb833          	sltu	a6,t4,s2
    3e1c:	00b12e23          	sw	a1,28(sp)
    3e20:	019ed593          	srli	a1,t4,0x19
    3e24:	01de7eb3          	and	t4,t3,t4
    3e28:	41d90eb3          	sub	t4,s2,t4
    3e2c:	03d12023          	sw	t4,32(sp)
    3e30:	05612223          	sw	s6,68(sp)
    3e34:	05412623          	sw	s4,76(sp)
    3e38:	02fa8db3          	mul	s11,s5,a5
    3e3c:	00c48eb3          	add	t4,s1,a2
    3e40:	009ebb33          	sltu	s6,t4,s1
    3e44:	019ed913          	srli	s2,t4,0x19
    3e48:	01de7eb3          	and	t4,t3,t4
    3e4c:	41d484b3          	sub	s1,s1,t4
    3e50:	02912223          	sw	s1,36(sp)
    3e54:	03912c23          	sw	s9,56(sp)
    3e58:	01300c93          	li	s9,19
    3e5c:	020006b7          	lui	a3,0x2000
    3e60:	02f98d33          	mul	s10,s3,a5
    3e64:	00cd8eb3          	add	t4,s11,a2
    3e68:	01beba33          	sltu	s4,t4,s11
    3e6c:	019ed493          	srli	s1,t4,0x19
    3e70:	01de7eb3          	and	t4,t3,t4
    3e74:	41dd8db3          	sub	s11,s11,t4
    3e78:	03b12623          	sw	s11,44(sp)
    3e7c:	fc000337          	lui	t1,0xfc000
    3e80:	4198d893          	srai	a7,a7,0x19
    3e84:	02fc1c33          	mulh	s8,s8,a5
    3e88:	00cd0633          	add	a2,s10,a2
    3e8c:	01a63db3          	sltu	s11,a2,s10
    3e90:	01965e93          	srli	t4,a2,0x19
    3e94:	00ce7633          	and	a2,t3,a2
    3e98:	40cd0d33          	sub	s10,s10,a2
    3e9c:	02fb9bb3          	mulh	s7,s7,a5
    3ea0:	01880c33          	add	s8,a6,s8
    3ea4:	007c1613          	slli	a2,s8,0x7
    3ea8:	00b665b3          	or	a1,a2,a1
    3eac:	419c5c13          	srai	s8,s8,0x19
    3eb0:	02fa9ab3          	mulh	s5,s5,a5
    3eb4:	017b0bb3          	add	s7,s6,s7
    3eb8:	007b9613          	slli	a2,s7,0x7
    3ebc:	01266933          	or	s2,a2,s2
    3ec0:	419bdb93          	srai	s7,s7,0x19
    3ec4:	02f999b3          	mulh	s3,s3,a5
    3ec8:	015a0ab3          	add	s5,s4,s5
    3ecc:	007a9613          	slli	a2,s5,0x7
    3ed0:	009664b3          	or	s1,a2,s1
    3ed4:	419ad613          	srai	a2,s5,0x19
    3ed8:	02c12423          	sw	a2,40(sp)
    3edc:	013d89b3          	add	s3,s11,s3
    3ee0:	00799613          	slli	a2,s3,0x7
    3ee4:	02ec8a33          	mul	s4,s9,a4
    3ee8:	01d66eb3          	or	t4,a2,t4
    3eec:	4199d993          	srai	s3,s3,0x19
    3ef0:	02f40633          	mul	a2,s0,a5
    3ef4:	02f38833          	mul	a6,t2,a5
    3ef8:	00ca0633          	add	a2,s4,a2
    3efc:	00d60e33          	add	t3,a2,a3
    3f00:	00ce3ab3          	sltu	s5,t3,a2
    3f04:	01ae5b13          	srli	s6,t3,0x1a
    3f08:	01c37e33          	and	t3,t1,t3
    3f0c:	01463a33          	sltu	s4,a2,s4
    3f10:	41c60e33          	sub	t3,a2,t3
    3f14:	01c52023          	sw	t3,0(a0)
    3f18:	01412423          	sw	s4,8(sp)
    3f1c:	02f28633          	mul	a2,t0,a5
    3f20:	01058833          	add	a6,a1,a6
    3f24:	00d80e33          	add	t3,a6,a3
    3f28:	01512823          	sw	s5,16(sp)
    3f2c:	01ae5a13          	srli	s4,t3,0x1a
    3f30:	010e3ab3          	sltu	s5,t3,a6
    3f34:	01c37e33          	and	t3,t1,t3
    3f38:	41c80e33          	sub	t3,a6,t3
    3f3c:	00b835b3          	sltu	a1,a6,a1
    3f40:	01c52423          	sw	t3,8(a0)
    3f44:	00c90633          	add	a2,s2,a2
    3f48:	02ff8833          	mul	a6,t6,a5
    3f4c:	00d60e33          	add	t3,a2,a3
    3f50:	01263933          	sltu	s2,a2,s2
    3f54:	01212623          	sw	s2,12(sp)
    3f58:	00ce3933          	sltu	s2,t3,a2
    3f5c:	01212a23          	sw	s2,20(sp)
    3f60:	01ae5d93          	srli	s11,t3,0x1a
    3f64:	01c37e33          	and	t3,t1,t3
    3f68:	41c60633          	sub	a2,a2,t3
    3f6c:	00c52823          	sw	a2,16(a0)
    3f70:	02ff0933          	mul	s2,t5,a5
    3f74:	01048833          	add	a6,s1,a6
    3f78:	00d80e33          	add	t3,a6,a3
    3f7c:	010e3633          	sltu	a2,t3,a6
    3f80:	00c12c23          	sw	a2,24(sp)
    3f84:	01ae5613          	srli	a2,t3,0x1a
    3f88:	01c37e33          	and	t3,t1,t3
    3f8c:	009834b3          	sltu	s1,a6,s1
    3f90:	41c80833          	sub	a6,a6,t3
    3f94:	01052c23          	sw	a6,24(a0)
    3f98:	02ecb733          	mulhu	a4,s9,a4
    3f9c:	012e8933          	add	s2,t4,s2
    3fa0:	00d906b3          	add	a3,s2,a3
    3fa4:	0126b833          	sltu	a6,a3,s2
    3fa8:	01a6de13          	srli	t3,a3,0x1a
    3fac:	00d376b3          	and	a3,t1,a3
    3fb0:	40d906b3          	sub	a3,s2,a3
    3fb4:	02d52023          	sw	a3,32(a0)
    3fb8:	00812683          	lw	a3,8(sp)
    3fbc:	01d93eb3          	sltu	t4,s2,t4
    3fc0:	031c88b3          	mul	a7,s9,a7
    3fc4:	03812c83          	lw	s9,56(sp)
    3fc8:	02f41433          	mulh	s0,s0,a5
    3fcc:	00e888b3          	add	a7,a7,a4
    3fd0:	02012703          	lw	a4,32(sp)
    3fd4:	02f393b3          	mulh	t2,t2,a5
    3fd8:	008888b3          	add	a7,a7,s0
    3fdc:	011688b3          	add	a7,a3,a7
    3fe0:	01012683          	lw	a3,16(sp)
    3fe4:	05c12403          	lw	s0,92(sp)
    3fe8:	011688b3          	add	a7,a3,a7
    3fec:	00c12683          	lw	a3,12(sp)
    3ff0:	00689893          	slli	a7,a7,0x6
    3ff4:	0168eb33          	or	s6,a7,s6
    3ff8:	02f292b3          	mulh	t0,t0,a5
    3ffc:	007c03b3          	add	t2,s8,t2
    4000:	007585b3          	add	a1,a1,t2
    4004:	00eb0b33          	add	s6,s6,a4
    4008:	00ba8ab3          	add	s5,s5,a1
    400c:	02412703          	lw	a4,36(sp)
    4010:	006a9a93          	slli	s5,s5,0x6
    4014:	014aea33          	or	s4,s5,s4
    4018:	00ea0a33          	add	s4,s4,a4
    401c:	02c12703          	lw	a4,44(sp)
    4020:	02ff9fb3          	mulh	t6,t6,a5
    4024:	005b8933          	add	s2,s7,t0
    4028:	01268933          	add	s2,a3,s2
    402c:	01412683          	lw	a3,20(sp)
    4030:	01c12583          	lw	a1,28(sp)
    4034:	01652223          	sw	s6,4(a0)
    4038:	01268933          	add	s2,a3,s2
    403c:	00691913          	slli	s2,s2,0x6
    4040:	01b96db3          	or	s11,s2,s11
    4044:	00ed8db3          	add	s11,s11,a4
    4048:	02ff17b3          	mulh	a5,t5,a5
    404c:	02812703          	lw	a4,40(sp)
    4050:	01452623          	sw	s4,12(a0)
    4054:	01b52a23          	sw	s11,20(a0)
    4058:	01f70fb3          	add	t6,a4,t6
    405c:	01812703          	lw	a4,24(sp)
    4060:	01f484b3          	add	s1,s1,t6
    4064:	05412903          	lw	s2,84(sp)
    4068:	009704b3          	add	s1,a4,s1
    406c:	00649493          	slli	s1,s1,0x6
    4070:	00f987b3          	add	a5,s3,a5
    4074:	00fe8eb3          	add	t4,t4,a5
    4078:	01d80833          	add	a6,a6,t4
    407c:	00681813          	slli	a6,a6,0x6
    4080:	00c4e633          	or	a2,s1,a2
    4084:	01c86e33          	or	t3,a6,t3
    4088:	01a60633          	add	a2,a2,s10
    408c:	00be0e33          	add	t3,t3,a1
    4090:	00c52e23          	sw	a2,28(a0)
    4094:	03c52223          	sw	t3,36(a0)
    4098:	05812483          	lw	s1,88(sp)
    409c:	05012983          	lw	s3,80(sp)
    40a0:	04c12a03          	lw	s4,76(sp)
    40a4:	04812a83          	lw	s5,72(sp)
    40a8:	04412b03          	lw	s6,68(sp)
    40ac:	04012b83          	lw	s7,64(sp)
    40b0:	03c12c03          	lw	s8,60(sp)
    40b4:	03412d03          	lw	s10,52(sp)
    40b8:	03012d83          	lw	s11,48(sp)
    40bc:	06010113          	addi	sp,sp,96
    40c0:	00008067          	ret

000040c4 <fe_neg>:
    40c4:	0045ae83          	lw	t4,4(a1)
    40c8:	0085ae03          	lw	t3,8(a1)
    40cc:	00c5a303          	lw	t1,12(a1)
    40d0:	0105a883          	lw	a7,16(a1)
    40d4:	0145a803          	lw	a6,20(a1)
    40d8:	0185a603          	lw	a2,24(a1)
    40dc:	01c5a683          	lw	a3,28(a1)
    40e0:	0205a703          	lw	a4,32(a1)
    40e4:	0245a783          	lw	a5,36(a1)
    40e8:	0005a583          	lw	a1,0(a1)
    40ec:	41d00eb3          	neg	t4,t4
    40f0:	41c00e33          	neg	t3,t3
    40f4:	40600333          	neg	t1,t1
    40f8:	411008b3          	neg	a7,a7
    40fc:	41000833          	neg	a6,a6
    4100:	40c00633          	neg	a2,a2
    4104:	40d006b3          	neg	a3,a3
    4108:	40e00733          	neg	a4,a4
    410c:	40f007b3          	neg	a5,a5
    4110:	40b005b3          	neg	a1,a1
    4114:	00b52023          	sw	a1,0(a0)
    4118:	01d52223          	sw	t4,4(a0)
    411c:	01c52423          	sw	t3,8(a0)
    4120:	00652623          	sw	t1,12(a0)
    4124:	01152823          	sw	a7,16(a0)
    4128:	01052a23          	sw	a6,20(a0)
    412c:	00c52c23          	sw	a2,24(a0)
    4130:	00d52e23          	sw	a3,28(a0)
    4134:	02e52023          	sw	a4,32(a0)
    4138:	02f52223          	sw	a5,36(a0)
    413c:	00008067          	ret

00004140 <fe_sq>:
    4140:	f7010113          	addi	sp,sp,-144
    4144:	07612a23          	sw	s6,116(sp)
    4148:	07912423          	sw	s9,104(sp)
    414c:	00c5ab03          	lw	s6,12(a1)
    4150:	0245a783          	lw	a5,36(a1)
    4154:	0045a683          	lw	a3,4(a1)
    4158:	0005ac83          	lw	s9,0(a1)
    415c:	0105a603          	lw	a2,16(a1)
    4160:	07812623          	sw	s8,108(sp)
    4164:	02600c13          	li	s8,38
    4168:	03878833          	mul	a6,a5,s8
    416c:	00169893          	slli	a7,a3,0x1
    4170:	001b1313          	slli	t1,s6,0x1
    4174:	00f12c23          	sw	a5,24(sp)
    4178:	001c9793          	slli	a5,s9,0x1
    417c:	07b12023          	sw	s11,96(sp)
    4180:	01c5a703          	lw	a4,28(a1)
    4184:	09212223          	sw	s2,132(sp)
    4188:	0085af83          	lw	t6,8(a1)
    418c:	00070e93          	mv	t4,a4
    4190:	02c783b3          	mul	t2,a5,a2
    4194:	07a12223          	sw	s10,100(sp)
    4198:	001e9d13          	slli	s10,t4,0x1
    419c:	01a12823          	sw	s10,16(sp)
    41a0:	08912423          	sw	s1,136(sp)
    41a4:	0145a483          	lw	s1,20(a1)
    41a8:	08812623          	sw	s0,140(sp)
    41ac:	0205ae03          	lw	t3,32(a1)
    41b0:	00d12a23          	sw	a3,20(sp)
    41b4:	01912e23          	sw	s9,28(sp)
    41b8:	02688db3          	mul	s11,a7,t1
    41bc:	002e1693          	slli	a3,t3,0x2
    41c0:	01c686b3          	add	a3,a3,t3
    41c4:	00269693          	slli	a3,a3,0x2
    41c8:	41c686b3          	sub	a3,a3,t3
    41cc:	07512c23          	sw	s5,120(sp)
    41d0:	01d12623          	sw	t4,12(sp)
    41d4:	02000f37          	lui	t5,0x2000
    41d8:	09312023          	sw	s3,128(sp)
    41dc:	fc0009b7          	lui	s3,0xfc000
    41e0:	01b38db3          	add	s11,t2,s11
    41e4:	007db3b3          	sltu	t2,s11,t2
    41e8:	02712023          	sw	t2,32(sp)
    41ec:	02c79933          	mulh	s2,a5,a2
    41f0:	07412e23          	sw	s4,124(sp)
    41f4:	07712823          	sw	s7,112(sp)
    41f8:	001f9293          	slli	t0,t6,0x1
    41fc:	01000a37          	lui	s4,0x1000
    4200:	00161b93          	slli	s7,a2,0x1
    4204:	026893b3          	mulh	t2,a7,t1
    4208:	03ff8d33          	mul	s10,t6,t6
    420c:	007903b3          	add	t2,s2,t2
    4210:	02012903          	lw	s2,32(sp)
    4214:	007903b3          	add	t2,s2,t2
    4218:	01ad8933          	add	s2,s11,s10
    421c:	03ff9d33          	mulh	s10,t6,t6
    4220:	01b93db3          	sltu	s11,s2,s11
    4224:	03870433          	mul	s0,a4,s8
    4228:	0185a703          	lw	a4,24(a1)
    422c:	00149593          	slli	a1,s1,0x1
    4230:	01a383b3          	add	t2,t2,s10
    4234:	007d83b3          	add	t2,s11,t2
    4238:	00171c93          	slli	s9,a4,0x1
    423c:	00271e93          	slli	t4,a4,0x2
    4240:	00ee8eb3          	add	t4,t4,a4
    4244:	002e9e93          	slli	t4,t4,0x2
    4248:	40ee8eb3          	sub	t4,t4,a4
    424c:	03058d33          	mul	s10,a1,a6
    4250:	01a90db3          	add	s11,s2,s10
    4254:	03059d33          	mulh	s10,a1,a6
    4258:	012db933          	sltu	s2,s11,s2
    425c:	02dc9ab3          	mulh	s5,s9,a3
    4260:	01a383b3          	add	t2,t2,s10
    4264:	007903b3          	add	t2,s2,t2
    4268:	015383b3          	add	t2,t2,s5
    426c:	02dc8ab3          	mul	s5,s9,a3
    4270:	03160d33          	mul	s10,a2,a7
    4274:	015d8933          	add	s2,s11,s5
    4278:	01b93db3          	sltu	s11,s2,s11
    427c:	007d8ab3          	add	s5,s11,t2
    4280:	02978cb3          	mul	s9,a5,s1
    4284:	01ac83b3          	add	t2,s9,s10
    4288:	00c12d03          	lw	s10,12(sp)
    428c:	02979db3          	mulh	s11,a5,s1
    4290:	02712223          	sw	t2,36(sp)
    4294:	0193bcb3          	sltu	s9,t2,s9
    4298:	031613b3          	mulh	t2,a2,a7
    429c:	028d0d33          	mul	s10,s10,s0
    42a0:	007d83b3          	add	t2,s11,t2
    42a4:	007c8cb3          	add	s9,s9,t2
    42a8:	03912023          	sw	s9,32(sp)
    42ac:	01a903b3          	add	t2,s2,s10
    42b0:	01e38db3          	add	s11,t2,t5
    42b4:	0123bd33          	sltu	s10,t2,s2
    42b8:	01addc93          	srli	s9,s11,0x1a
    42bc:	007db933          	sltu	s2,s11,t2
    42c0:	01b9fdb3          	and	s11,s3,s11
    42c4:	03212423          	sw	s2,40(sp)
    42c8:	03912a23          	sw	s9,52(sp)
    42cc:	41b38cb3          	sub	s9,t2,s11
    42d0:	0193b933          	sltu	s2,t2,s9
    42d4:	05912a23          	sw	s9,84(sp)
    42d8:	00c12c83          	lw	s9,12(sp)
    42dc:	025b0db3          	mul	s11,s6,t0
    42e0:	03212623          	sw	s2,44(sp)
    42e4:	02412903          	lw	s2,36(sp)
    42e8:	028c93b3          	mulh	t2,s9,s0
    42ec:	01b90db3          	add	s11,s2,s11
    42f0:	03b12823          	sw	s11,48(sp)
    42f4:	012dbdb3          	sltu	s11,s11,s2
    42f8:	03b12223          	sw	s11,36(sp)
    42fc:	007a83b3          	add	t2,s5,t2
    4300:	007d03b3          	add	t2,s10,t2
    4304:	02812d03          	lw	s10,40(sp)
    4308:	007d0db3          	add	s11,s10,t2
    430c:	03412d03          	lw	s10,52(sp)
    4310:	006d9a93          	slli	s5,s11,0x6
    4314:	41b383b3          	sub	t2,t2,s11
    4318:	01aae933          	or	s2,s5,s10
    431c:	02c12d03          	lw	s10,44(sp)
    4320:	41adda93          	srai	s5,s11,0x1a
    4324:	03512a23          	sw	s5,52(sp)
    4328:	41a383b3          	sub	t2,t2,s10
    432c:	025b1d33          	mulh	s10,s6,t0
    4330:	02012a83          	lw	s5,32(sp)
    4334:	04712023          	sw	t2,64(sp)
    4338:	00090c93          	mv	s9,s2
    433c:	03012903          	lw	s2,48(sp)
    4340:	01aa83b3          	add	t2,s5,s10
    4344:	02412a83          	lw	s5,36(sp)
    4348:	007a8d33          	add	s10,s5,t2
    434c:	030703b3          	mul	t2,a4,a6
    4350:	00790db3          	add	s11,s2,t2
    4354:	012db933          	sltu	s2,s11,s2
    4358:	03212023          	sw	s2,32(sp)
    435c:	02b88ab3          	mul	s5,a7,a1
    4360:	02e78933          	mul	s2,a5,a4
    4364:	030713b3          	mulh	t2,a4,a6
    4368:	01590933          	add	s2,s2,s5
    436c:	03212623          	sw	s2,44(sp)
    4370:	02e78ab3          	mul	s5,a5,a4
    4374:	007d03b3          	add	t2,s10,t2
    4378:	02012d03          	lw	s10,32(sp)
    437c:	007d0d33          	add	s10,s10,t2
    4380:	03a12023          	sw	s10,32(sp)
    4384:	01012d03          	lw	s10,16(sp)
    4388:	01593ab3          	sltu	s5,s2,s5
    438c:	02b893b3          	mulh	t2,a7,a1
    4390:	02e79933          	mulh	s2,a5,a4
    4394:	02dd0d33          	mul	s10,s10,a3
    4398:	007903b3          	add	t2,s2,t2
    439c:	007a83b3          	add	t2,s5,t2
    43a0:	02712423          	sw	t2,40(sp)
    43a4:	03a12223          	sw	s10,36(sp)
    43a8:	02412383          	lw	t2,36(sp)
    43ac:	02560ab3          	mul	s5,a2,t0
    43b0:	007d83b3          	add	t2,s11,t2
    43b4:	01b3bdb3          	sltu	s11,t2,s11
    43b8:	03b12223          	sw	s11,36(sp)
    43bc:	007c8db3          	add	s11,s9,t2
    43c0:	014d83b3          	add	t2,s11,s4
    43c4:	019db933          	sltu	s2,s11,s9
    43c8:	00090c93          	mv	s9,s2
    43cc:	01b3b933          	sltu	s2,t2,s11
    43d0:	03212823          	sw	s2,48(sp)
    43d4:	fe000937          	lui	s2,0xfe000
    43d8:	0193dd13          	srli	s10,t2,0x19
    43dc:	007973b3          	and	t2,s2,t2
    43e0:	01012903          	lw	s2,16(sp)
    43e4:	407d83b3          	sub	t2,s11,t2
    43e8:	04712c23          	sw	t2,88(sp)
    43ec:	02d913b3          	mulh	t2,s2,a3
    43f0:	02c12d83          	lw	s11,44(sp)
    43f4:	03a12c23          	sw	s10,56(sp)
    43f8:	02012d03          	lw	s10,32(sp)
    43fc:	015d8933          	add	s2,s11,s5
    4400:	01b93db3          	sltu	s11,s2,s11
    4404:	03b12623          	sw	s11,44(sp)
    4408:	02412d83          	lw	s11,36(sp)
    440c:	03412a83          	lw	s5,52(sp)
    4410:	007d03b3          	add	t2,s10,t2
    4414:	007d83b3          	add	t2,s11,t2
    4418:	007a83b3          	add	t2,s5,t2
    441c:	03012a83          	lw	s5,48(sp)
    4420:	007c83b3          	add	t2,s9,t2
    4424:	007a83b3          	add	t2,s5,t2
    4428:	03812a83          	lw	s5,56(sp)
    442c:	00739d93          	slli	s11,t2,0x7
    4430:	4193dd13          	srai	s10,t2,0x19
    4434:	015deab3          	or	s5,s11,s5
    4438:	026b0db3          	mul	s11,s6,t1
    443c:	03a12823          	sw	s10,48(sp)
    4440:	02812d03          	lw	s10,40(sp)
    4444:	025613b3          	mulh	t2,a2,t0
    4448:	01b90db3          	add	s11,s2,s11
    444c:	012db933          	sltu	s2,s11,s2
    4450:	00090c93          	mv	s9,s2
    4454:	01012903          	lw	s2,16(sp)
    4458:	007d03b3          	add	t2,s10,t2
    445c:	03090933          	mul	s2,s2,a6
    4460:	02c12d03          	lw	s10,44(sp)
    4464:	007d03b3          	add	t2,s10,t2
    4468:	026b1d33          	mulh	s10,s6,t1
    446c:	03212023          	sw	s2,32(sp)
    4470:	01012903          	lw	s2,16(sp)
    4474:	01a383b3          	add	t2,t2,s10
    4478:	03091d33          	mulh	s10,s2,a6
    447c:	02012903          	lw	s2,32(sp)
    4480:	007c83b3          	add	t2,s9,t2
    4484:	00c12c83          	lw	s9,12(sp)
    4488:	012d8933          	add	s2,s11,s2
    448c:	01b93db3          	sltu	s11,s2,s11
    4490:	01a383b3          	add	t2,t2,s10
    4494:	007d8db3          	add	s11,s11,t2
    4498:	02de03b3          	mul	t2,t3,a3
    449c:	000d8d13          	mv	s10,s11
    44a0:	007903b3          	add	t2,s2,t2
    44a4:	0123bdb3          	sltu	s11,t2,s2
    44a8:	03b12023          	sw	s11,32(sp)
    44ac:	007a8db3          	add	s11,s5,t2
    44b0:	01ed83b3          	add	t2,s11,t5
    44b4:	01b3b933          	sltu	s2,t2,s11
    44b8:	03212423          	sw	s2,40(sp)
    44bc:	01a3d913          	srli	s2,t2,0x1a
    44c0:	0079f3b3          	and	t2,s3,t2
    44c4:	407d83b3          	sub	t2,s11,t2
    44c8:	00752c23          	sw	t2,24(a0)
    44cc:	00c12383          	lw	t2,12(sp)
    44d0:	015dbab3          	sltu	s5,s11,s5
    44d4:	02de1db3          	mulh	s11,t3,a3
    44d8:	03512223          	sw	s5,36(sp)
    44dc:	02412a83          	lw	s5,36(sp)
    44e0:	03212a23          	sw	s2,52(sp)
    44e4:	027793b3          	mulh	t2,a5,t2
    44e8:	02712623          	sw	t2,44(sp)
    44ec:	01bd03b3          	add	t2,s10,s11
    44f0:	02012d83          	lw	s11,32(sp)
    44f4:	03012d03          	lw	s10,48(sp)
    44f8:	03978cb3          	mul	s9,a5,s9
    44fc:	007d83b3          	add	t2,s11,t2
    4500:	007d03b3          	add	t2,s10,t2
    4504:	007a83b3          	add	t2,s5,t2
    4508:	02812a83          	lw	s5,40(sp)
    450c:	02c12d03          	lw	s10,44(sp)
    4510:	007a83b3          	add	t2,s5,t2
    4514:	03412a83          	lw	s5,52(sp)
    4518:	00639d93          	slli	s11,t2,0x6
    451c:	03170933          	mul	s2,a4,a7
    4520:	015deab3          	or	s5,s11,s5
    4524:	41a3dd93          	srai	s11,t2,0x1a
    4528:	03b12e23          	sw	s11,60(sp)
    452c:	03848db3          	mul	s11,s1,s8
    4530:	012c8933          	add	s2,s9,s2
    4534:	01993cb3          	sltu	s9,s2,s9
    4538:	031713b3          	mulh	t2,a4,a7
    453c:	03b12223          	sw	s11,36(sp)
    4540:	02548db3          	mul	s11,s1,t0
    4544:	007d03b3          	add	t2,s10,t2
    4548:	007c83b3          	add	t2,s9,t2
    454c:	01c12c83          	lw	s9,28(sp)
    4550:	02549d33          	mulh	s10,s1,t0
    4554:	01b90db3          	add	s11,s2,s11
    4558:	012dbc33          	sltu	s8,s11,s2
    455c:	01a383b3          	add	t2,t2,s10
    4560:	007c0d33          	add	s10,s8,t2
    4564:	03c783b3          	mul	t2,a5,t3
    4568:	03a12423          	sw	s10,40(sp)
    456c:	039c8933          	mul	s2,s9,s9
    4570:	00038c93          	mv	s9,t2
    4574:	030883b3          	mul	t2,a7,a6
    4578:	007903b3          	add	t2,s2,t2
    457c:	0123b933          	sltu	s2,t2,s2
    4580:	03212023          	sw	s2,32(sp)
    4584:	01012903          	lw	s2,16(sp)
    4588:	02660d33          	mul	s10,a2,t1
    458c:	00038c13          	mv	s8,t2
    4590:	032883b3          	mul	t2,a7,s2
    4594:	01ad8933          	add	s2,s11,s10
    4598:	01c12d03          	lw	s10,28(sp)
    459c:	03212823          	sw	s2,48(sp)
    45a0:	01b93db3          	sltu	s11,s2,s11
    45a4:	007c83b3          	add	t2,s9,t2
    45a8:	02712c23          	sw	t2,56(sp)
    45ac:	0193bcb3          	sltu	s9,t2,s9
    45b0:	030893b3          	mulh	t2,a7,a6
    45b4:	02012903          	lw	s2,32(sp)
    45b8:	03912623          	sw	s9,44(sp)
    45bc:	03ad1d33          	mulh	s10,s10,s10
    45c0:	00038c93          	mv	s9,t2
    45c4:	019d0d33          	add	s10,s10,s9
    45c8:	01a90d33          	add	s10,s2,s10
    45cc:	01012903          	lw	s2,16(sp)
    45d0:	01a12e23          	sw	s10,28(sp)
    45d4:	03c79d33          	mulh	s10,a5,t3
    45d8:	02812c83          	lw	s9,40(sp)
    45dc:	03289933          	mulh	s2,a7,s2
    45e0:	026613b3          	mulh	t2,a2,t1
    45e4:	012d0933          	add	s2,s10,s2
    45e8:	02c12d03          	lw	s10,44(sp)
    45ec:	012d0d33          	add	s10,s10,s2
    45f0:	03a12623          	sw	s10,44(sp)
    45f4:	007c83b3          	add	t2,s9,t2
    45f8:	030e0933          	mul	s2,t3,a6
    45fc:	007d8db3          	add	s11,s11,t2
    4600:	03b12423          	sw	s11,40(sp)
    4604:	03012d83          	lw	s11,48(sp)
    4608:	02d283b3          	mul	t2,t0,a3
    460c:	007c0d33          	add	s10,s8,t2
    4610:	012d83b3          	add	t2,s11,s2
    4614:	018d3c33          	sltu	s8,s10,s8
    4618:	01b3bdb3          	sltu	s11,t2,s11
    461c:	007a83b3          	add	t2,s5,t2
    4620:	03812023          	sw	s8,32(sp)
    4624:	01438933          	add	s2,t2,s4
    4628:	0153bc33          	sltu	s8,t2,s5
    462c:	03812823          	sw	s8,48(sp)
    4630:	00793c33          	sltu	s8,s2,t2
    4634:	03812a23          	sw	s8,52(sp)
    4638:	fe000c37          	lui	s8,0xfe000
    463c:	01995a93          	srli	s5,s2,0x19
    4640:	012c7933          	and	s2,s8,s2
    4644:	41238933          	sub	s2,t2,s2
    4648:	02d293b3          	mulh	t2,t0,a3
    464c:	01512823          	sw	s5,16(sp)
    4650:	01c12a83          	lw	s5,28(sp)
    4654:	01252e23          	sw	s2,28(a0)
    4658:	03812c03          	lw	s8,56(sp)
    465c:	007a83b3          	add	t2,s5,t2
    4660:	02012a83          	lw	s5,32(sp)
    4664:	02570cb3          	mul	s9,a4,t0
    4668:	007a83b3          	add	t2,s5,t2
    466c:	00712e23          	sw	t2,28(sp)
    4670:	02812a83          	lw	s5,40(sp)
    4674:	030e1933          	mulh	s2,t3,a6
    4678:	019c0cb3          	add	s9,s8,s9
    467c:	03912c23          	sw	s9,56(sp)
    4680:	018cbc33          	sltu	s8,s9,s8
    4684:	025713b3          	mulh	t2,a4,t0
    4688:	00038c93          	mv	s9,t2
    468c:	012a83b3          	add	t2,s5,s2
    4690:	03c12903          	lw	s2,60(sp)
    4694:	03012a83          	lw	s5,48(sp)
    4698:	007d83b3          	add	t2,s11,t2
    469c:	007903b3          	add	t2,s2,t2
    46a0:	007a83b3          	add	t2,s5,t2
    46a4:	03412a83          	lw	s5,52(sp)
    46a8:	007a83b3          	add	t2,s5,t2
    46ac:	01012a83          	lw	s5,16(sp)
    46b0:	00739913          	slli	s2,t2,0x7
    46b4:	4193dd93          	srai	s11,t2,0x19
    46b8:	01596933          	or	s2,s2,s5
    46bc:	01212823          	sw	s2,16(sp)
    46c0:	02c12903          	lw	s2,44(sp)
    46c4:	028303b3          	mul	t2,t1,s0
    46c8:	05b12e23          	sw	s11,92(sp)
    46cc:	01990933          	add	s2,s2,s9
    46d0:	012c0933          	add	s2,s8,s2
    46d4:	00090d93          	mv	s11,s2
    46d8:	03812c03          	lw	s8,56(sp)
    46dc:	01c12a83          	lw	s5,28(sp)
    46e0:	02b30933          	mul	s2,t1,a1
    46e4:	007d03b3          	add	t2,s10,t2
    46e8:	01a3bd33          	sltu	s10,t2,s10
    46ec:	03a12023          	sw	s10,32(sp)
    46f0:	02831d33          	mulh	s10,t1,s0
    46f4:	012c0cb3          	add	s9,s8,s2
    46f8:	000c8913          	mv	s2,s9
    46fc:	01893c33          	sltu	s8,s2,s8
    4700:	03912423          	sw	s9,40(sp)
    4704:	02b31933          	mulh	s2,t1,a1
    4708:	01aa8d33          	add	s10,s5,s10
    470c:	02012a83          	lw	s5,32(sp)
    4710:	01412c83          	lw	s9,20(sp)
    4714:	01aa8d33          	add	s10,s5,s10
    4718:	000d0a93          	mv	s5,s10
    471c:	012d8933          	add	s2,s11,s2
    4720:	03978d33          	mul	s10,a5,s9
    4724:	012c0933          	add	s2,s8,s2
    4728:	03212623          	sw	s2,44(sp)
    472c:	02812c83          	lw	s9,40(sp)
    4730:	030f8c33          	mul	s8,t6,a6
    4734:	02c60db3          	mul	s11,a2,a2
    4738:	018d0c33          	add	s8,s10,s8
    473c:	01ac3d33          	sltu	s10,s8,s10
    4740:	03a12023          	sw	s10,32(sp)
    4744:	03db8933          	mul	s2,s7,t4
    4748:	01bc8db3          	add	s11,s9,s11
    474c:	03b12823          	sw	s11,48(sp)
    4750:	019dbcb3          	sltu	s9,s11,s9
    4754:	01412d83          	lw	s11,20(sp)
    4758:	03db9d33          	mulh	s10,s7,t4
    475c:	01238933          	add	s2,t2,s2
    4760:	007933b3          	sltu	t2,s2,t2
    4764:	01aa8d33          	add	s10,s5,s10
    4768:	03b79db3          	mulh	s11,a5,s11
    476c:	01a38d33          	add	s10,t2,s10
    4770:	02012a83          	lw	s5,32(sp)
    4774:	01a12e23          	sw	s10,28(sp)
    4778:	030f93b3          	mulh	t2,t6,a6
    477c:	007d83b3          	add	t2,s11,t2
    4780:	01812d83          	lw	s11,24(sp)
    4784:	007a83b3          	add	t2,s5,t2
    4788:	02c61d33          	mulh	s10,a2,a2
    478c:	02712423          	sw	t2,40(sp)
    4790:	02c12a83          	lw	s5,44(sp)
    4794:	03b783b3          	mul	t2,a5,s11
    4798:	02712a23          	sw	t2,52(sp)
    479c:	01aa83b3          	add	t2,s5,s10
    47a0:	02412a83          	lw	s5,36(sp)
    47a4:	007c8d33          	add	s10,s9,t2
    47a8:	03a12623          	sw	s10,44(sp)
    47ac:	029a83b3          	mul	t2,s5,s1
    47b0:	02d30d33          	mul	s10,t1,a3
    47b4:	007903b3          	add	t2,s2,t2
    47b8:	01e38cb3          	add	s9,t2,t5
    47bc:	0123b933          	sltu	s2,t2,s2
    47c0:	03212023          	sw	s2,32(sp)
    47c4:	007cb933          	sltu	s2,s9,t2
    47c8:	03212c23          	sw	s2,56(sp)
    47cc:	0199f933          	and	s2,s3,s9
    47d0:	41238933          	sub	s2,t2,s2
    47d4:	05212823          	sw	s2,80(sp)
    47d8:	000d0d93          	mv	s11,s10
    47dc:	01acdd13          	srli	s10,s9,0x1a
    47e0:	0123bcb3          	sltu	s9,t2,s2
    47e4:	03912e23          	sw	s9,60(sp)
    47e8:	01812c83          	lw	s9,24(sp)
    47ec:	030c83b3          	mul	t2,s9,a6
    47f0:	000c0c93          	mv	s9,s8
    47f4:	01bc8933          	add	s2,s9,s11
    47f8:	03012d83          	lw	s11,48(sp)
    47fc:	01993cb3          	sltu	s9,s2,s9
    4800:	03912223          	sw	s9,36(sp)
    4804:	00090c13          	mv	s8,s2
    4808:	007d83b3          	add	t2,s11,t2
    480c:	01b3bdb3          	sltu	s11,t2,s11
    4810:	03b12823          	sw	s11,48(sp)
    4814:	01012d83          	lw	s11,16(sp)
    4818:	031e0cb3          	mul	s9,t3,a7
    481c:	007d83b3          	add	t2,s11,t2
    4820:	01e38933          	add	s2,t2,t5
    4824:	01b3bdb3          	sltu	s11,t2,s11
    4828:	05b12223          	sw	s11,68(sp)
    482c:	00793db3          	sltu	s11,s2,t2
    4830:	05b12423          	sw	s11,72(sp)
    4834:	01a95d93          	srli	s11,s2,0x1a
    4838:	0129f933          	and	s2,s3,s2
    483c:	412383b3          	sub	t2,t2,s2
    4840:	029a9933          	mulh	s2,s5,s1
    4844:	02752023          	sw	t2,32(a0)
    4848:	03412a83          	lw	s5,52(sp)
    484c:	01b12823          	sw	s11,16(sp)
    4850:	019a8cb3          	add	s9,s5,s9
    4854:	000c8d93          	mv	s11,s9
    4858:	015cbcb3          	sltu	s9,s9,s5
    485c:	01c12a83          	lw	s5,28(sp)
    4860:	03912a23          	sw	s9,52(sp)
    4864:	02d313b3          	mulh	t2,t1,a3
    4868:	012a8933          	add	s2,s5,s2
    486c:	02012a83          	lw	s5,32(sp)
    4870:	00038c93          	mv	s9,t2
    4874:	012a83b3          	add	t2,s5,s2
    4878:	03812a83          	lw	s5,56(sp)
    487c:	031e1e33          	mulh	t3,t3,a7
    4880:	007a8933          	add	s2,s5,t2
    4884:	00691a93          	slli	s5,s2,0x6
    4888:	01aaed33          	or	s10,s5,s10
    488c:	41a95a93          	srai	s5,s2,0x1a
    4890:	05512623          	sw	s5,76(sp)
    4894:	03c12a83          	lw	s5,60(sp)
    4898:	41238933          	sub	s2,t2,s2
    489c:	41590933          	sub	s2,s2,s5
    48a0:	03212c23          	sw	s2,56(sp)
    48a4:	01812903          	lw	s2,24(sp)
    48a8:	02812a83          	lw	s5,40(sp)
    48ac:	03091933          	mulh	s2,s2,a6
    48b0:	019a83b3          	add	t2,s5,s9
    48b4:	02412a83          	lw	s5,36(sp)
    48b8:	01812c83          	lw	s9,24(sp)
    48bc:	007a83b3          	add	t2,s5,t2
    48c0:	02c12a83          	lw	s5,44(sp)
    48c4:	00712e23          	sw	t2,28(sp)
    48c8:	012a83b3          	add	t2,s5,s2
    48cc:	03012a83          	lw	s5,48(sp)
    48d0:	03979cb3          	mulh	s9,a5,s9
    48d4:	007a83b3          	add	t2,s5,t2
    48d8:	05c12a83          	lw	s5,92(sp)
    48dc:	007a83b3          	add	t2,s5,t2
    48e0:	04412a83          	lw	s5,68(sp)
    48e4:	007a83b3          	add	t2,s5,t2
    48e8:	04812a83          	lw	s5,72(sp)
    48ec:	01cc8e33          	add	t3,s9,t3
    48f0:	007a83b3          	add	t2,s5,t2
    48f4:	01012a83          	lw	s5,16(sp)
    48f8:	00639913          	slli	s2,t2,0x6
    48fc:	01596933          	or	s2,s2,s5
    4900:	41a3da93          	srai	s5,t2,0x1a
    4904:	03512623          	sw	s5,44(sp)
    4908:	03412a83          	lw	s5,52(sp)
    490c:	03f783b3          	mul	t2,a5,t6
    4910:	01212823          	sw	s2,16(sp)
    4914:	01ca8e33          	add	t3,s5,t3
    4918:	03c12223          	sw	t3,36(sp)
    491c:	01412e03          	lw	t3,20(sp)
    4920:	00c12a83          	lw	s5,12(sp)
    4924:	031e0e33          	mul	t3,t3,a7
    4928:	02860933          	mul	s2,a2,s0
    492c:	01c38e33          	add	t3,t2,t3
    4930:	025a8cb3          	mul	s9,s5,t0
    4934:	007e3ab3          	sltu	s5,t3,t2
    4938:	03512023          	sw	s5,32(sp)
    493c:	012c0933          	add	s2,s8,s2
    4940:	01893c33          	sltu	s8,s2,s8
    4944:	01812c23          	sw	s8,24(sp)
    4948:	03f79ab3          	mulh	s5,a5,t6
    494c:	019d8cb3          	add	s9,s11,s9
    4950:	01bcbc33          	sltu	s8,s9,s11
    4954:	03812423          	sw	s8,40(sp)
    4958:	01812c03          	lw	s8,24(sp)
    495c:	028613b3          	mulh	t2,a2,s0
    4960:	000a8d93          	mv	s11,s5
    4964:	01c12a83          	lw	s5,28(sp)
    4968:	007a83b3          	add	t2,s5,t2
    496c:	007c0c33          	add	s8,s8,t2
    4970:	01812c23          	sw	s8,24(sp)
    4974:	01412c03          	lw	s8,20(sp)
    4978:	00c12383          	lw	t2,12(sp)
    497c:	02012a83          	lw	s5,32(sp)
    4980:	031c1c33          	mulh	s8,s8,a7
    4984:	025392b3          	mulh	t0,t2,t0
    4988:	018d8c33          	add	s8,s11,s8
    498c:	018a8db3          	add	s11,s5,s8
    4990:	02412a83          	lw	s5,36(sp)
    4994:	02812c03          	lw	s8,40(sp)
    4998:	01b12623          	sw	s11,12(sp)
    499c:	005a82b3          	add	t0,s5,t0
    49a0:	005c02b3          	add	t0,s8,t0
    49a4:	03d583b3          	mul	t2,a1,t4
    49a8:	00512a23          	sw	t0,20(sp)
    49ac:	fe000c37          	lui	s8,0xfe000
    49b0:	030302b3          	mul	t0,t1,a6
    49b4:	00028d93          	mv	s11,t0
    49b8:	007902b3          	add	t0,s2,t2
    49bc:	0122b933          	sltu	s2,t0,s2
    49c0:	005d02b3          	add	t0,s10,t0
    49c4:	014283b3          	add	t2,t0,s4
    49c8:	0053bab3          	sltu	s5,t2,t0
    49cc:	03512023          	sw	s5,32(sp)
    49d0:	0193da93          	srli	s5,t2,0x19
    49d4:	007c73b3          	and	t2,s8,t2
    49d8:	02670c33          	mul	s8,a4,t1
    49dc:	01a2bd33          	sltu	s10,t0,s10
    49e0:	407282b3          	sub	t0,t0,t2
    49e4:	02512223          	sw	t0,36(sp)
    49e8:	01be02b3          	add	t0,t3,s11
    49ec:	01812d83          	lw	s11,24(sp)
    49f0:	01c2be33          	sltu	t3,t0,t3
    49f4:	03d593b3          	mulh	t2,a1,t4
    49f8:	018c8c33          	add	s8,s9,s8
    49fc:	019c3cb3          	sltu	s9,s8,s9
    4a00:	01912e23          	sw	s9,28(sp)
    4a04:	007d83b3          	add	t2,s11,t2
    4a08:	03031cb3          	mulh	s9,t1,a6
    4a0c:	00790933          	add	s2,s2,t2
    4a10:	04c12383          	lw	t2,76(sp)
    4a14:	02012d83          	lw	s11,32(sp)
    4a18:	01238933          	add	s2,t2,s2
    4a1c:	012d0d33          	add	s10,s10,s2
    4a20:	01ad8d33          	add	s10,s11,s10
    4a24:	007d1393          	slli	t2,s10,0x7
    4a28:	419d5d13          	srai	s10,s10,0x19
    4a2c:	02671333          	mulh	t1,a4,t1
    4a30:	01a12c23          	sw	s10,24(sp)
    4a34:	01412d03          	lw	s10,20(sp)
    4a38:	00c12d83          	lw	s11,12(sp)
    4a3c:	0153eab3          	or	s5,t2,s5
    4a40:	019d8cb3          	add	s9,s11,s9
    4a44:	019e0cb3          	add	s9,t3,s9
    4a48:	006d0333          	add	t1,s10,t1
    4a4c:	01c12d03          	lw	s10,28(sp)
    4a50:	03768e33          	mul	t3,a3,s7
    4a54:	006d0db3          	add	s11,s10,t1
    4a58:	01b12623          	sw	s11,12(sp)
    4a5c:	03748333          	mul	t1,s1,s7
    4a60:	01c28e33          	add	t3,t0,t3
    4a64:	005e3933          	sltu	s2,t3,t0
    4a68:	037693b3          	mulh	t2,a3,s7
    4a6c:	006c0333          	add	t1,s8,t1
    4a70:	018332b3          	sltu	t0,t1,s8
    4a74:	01012c03          	lw	s8,16(sp)
    4a78:	00512a23          	sw	t0,20(sp)
    4a7c:	006c0333          	add	t1,s8,t1
    4a80:	014302b3          	add	t0,t1,s4
    4a84:	0062bd33          	sltu	s10,t0,t1
    4a88:	01833db3          	sltu	s11,t1,s8
    4a8c:	fe000c37          	lui	s8,0xfe000
    4a90:	01a12823          	sw	s10,16(sp)
    4a94:	0192dd13          	srli	s10,t0,0x19
    4a98:	005c72b3          	and	t0,s8,t0
    4a9c:	405302b3          	sub	t0,t1,t0
    4aa0:	007c8cb3          	add	s9,s9,t2
    4aa4:	02552223          	sw	t0,36(a0)
    4aa8:	028582b3          	mul	t0,a1,s0
    4aac:	01990cb3          	add	s9,s2,s9
    4ab0:	01412303          	lw	t1,20(sp)
    4ab4:	02859933          	mulh	s2,a1,s0
    4ab8:	005e02b3          	add	t0,t3,t0
    4abc:	01c2be33          	sltu	t3,t0,t3
    4ac0:	037494b3          	mulh	s1,s1,s7
    4ac4:	012c8cb3          	add	s9,s9,s2
    4ac8:	019e0cb3          	add	s9,t3,s9
    4acc:	00c12b83          	lw	s7,12(sp)
    4ad0:	05012903          	lw	s2,80(sp)
    4ad4:	03d70e33          	mul	t3,a4,t4
    4ad8:	009b84b3          	add	s1,s7,s1
    4adc:	009304b3          	add	s1,t1,s1
    4ae0:	02c12303          	lw	t1,44(sp)
    4ae4:	009304b3          	add	s1,t1,s1
    4ae8:	01012303          	lw	t1,16(sp)
    4aec:	009d8db3          	add	s11,s11,s1
    4af0:	03d71eb3          	mulh	t4,a4,t4
    4af4:	01c28e33          	add	t3,t0,t3
    4af8:	005e32b3          	sltu	t0,t3,t0
    4afc:	01ca8e33          	add	t3,s5,t3
    4b00:	01ee03b3          	add	t2,t3,t5
    4b04:	01c3bc33          	sltu	s8,t2,t3
    4b08:	01a3db93          	srli	s7,t2,0x1a
    4b0c:	0079f3b3          	and	t2,s3,t2
    4b10:	015e3ab3          	sltu	s5,t3,s5
    4b14:	407e03b3          	sub	t2,t3,t2
    4b18:	01812e03          	lw	t3,24(sp)
    4b1c:	01dc8eb3          	add	t4,s9,t4
    4b20:	01b30db3          	add	s11,t1,s11
    4b24:	01d28eb3          	add	t4,t0,t4
    4b28:	007d9313          	slli	t1,s11,0x7
    4b2c:	01de0eb3          	add	t4,t3,t4
    4b30:	036784b3          	mul	s1,a5,s6
    4b34:	01a36d33          	or	s10,t1,s10
    4b38:	01da8eb3          	add	t4,s5,t4
    4b3c:	01dc0c33          	add	s8,s8,t4
    4b40:	006c1e13          	slli	t3,s8,0x6
    4b44:	017e6bb3          	or	s7,t3,s7
    4b48:	00752423          	sw	t2,8(a0)
    4b4c:	419ddd93          	srai	s11,s11,0x19
    4b50:	41ac5c13          	srai	s8,s8,0x1a
    4b54:	05412c83          	lw	s9,84(sp)
    4b58:	031f8333          	mul	t1,t6,a7
    4b5c:	036797b3          	mulh	a5,a5,s6
    4b60:	00648333          	add	t1,s1,t1
    4b64:	009334b3          	sltu	s1,t1,s1
    4b68:	031f98b3          	mulh	a7,t6,a7
    4b6c:	03060e33          	mul	t3,a2,a6
    4b70:	011787b3          	add	a5,a5,a7
    4b74:	00f484b3          	add	s1,s1,a5
    4b78:	03061633          	mulh	a2,a2,a6
    4b7c:	01c30e33          	add	t3,t1,t3
    4b80:	006e3333          	sltu	t1,t3,t1
    4b84:	02d587b3          	mul	a5,a1,a3
    4b88:	00c484b3          	add	s1,s1,a2
    4b8c:	00930333          	add	t1,t1,s1
    4b90:	02870633          	mul	a2,a4,s0
    4b94:	00fe07b3          	add	a5,t3,a5
    4b98:	01c7be33          	sltu	t3,a5,t3
    4b9c:	02d596b3          	mulh	a3,a1,a3
    4ba0:	00c78633          	add	a2,a5,a2
    4ba4:	00f637b3          	sltu	a5,a2,a5
    4ba8:	00cb8633          	add	a2,s7,a2
    4bac:	01460a33          	add	s4,a2,s4
    4bb0:	00ca33b3          	sltu	t2,s4,a2
    4bb4:	019a5813          	srli	a6,s4,0x19
    4bb8:	01763bb3          	sltu	s7,a2,s7
    4bbc:	02871733          	mulh	a4,a4,s0
    4bc0:	00d306b3          	add	a3,t1,a3
    4bc4:	00de0e33          	add	t3,t3,a3
    4bc8:	fe0006b7          	lui	a3,0xfe000
    4bcc:	0146fa33          	and	s4,a3,s4
    4bd0:	01300693          	li	a3,19
    4bd4:	08c12403          	lw	s0,140(sp)
    4bd8:	41460633          	sub	a2,a2,s4
    4bdc:	00c52623          	sw	a2,12(a0)
    4be0:	03a688b3          	mul	a7,a3,s10
    4be4:	00ee0733          	add	a4,t3,a4
    4be8:	00e787b3          	add	a5,a5,a4
    4bec:	00068713          	mv	a4,a3
    4bf0:	00fc0c33          	add	s8,s8,a5
    4bf4:	018b8c33          	add	s8,s7,s8
    4bf8:	018383b3          	add	t2,t2,s8
    4bfc:	00739793          	slli	a5,t2,0x7
    4c00:	0107e833          	or	a6,a5,a6
    4c04:	019807b3          	add	a5,a6,s9
    4c08:	03b68db3          	mul	s11,a3,s11
    4c0c:	04012683          	lw	a3,64(sp)
    4c10:	01288933          	add	s2,a7,s2
    4c14:	4193d393          	srai	t2,t2,0x19
    4c18:	01e785b3          	add	a1,a5,t5
    4c1c:	0107b833          	sltu	a6,a5,a6
    4c20:	01e90f33          	add	t5,s2,t5
    4c24:	00d383b3          	add	t2,t2,a3
    4c28:	007803b3          	add	t2,a6,t2
    4c2c:	012f36b3          	sltu	a3,t5,s2
    4c30:	03a73d33          	mulhu	s10,a4,s10
    4c34:	00f5b833          	sltu	a6,a1,a5
    4c38:	01af5293          	srli	t0,t5,0x1a
    4c3c:	01e9ff33          	and	t5,s3,t5
    4c40:	00b9f9b3          	and	s3,s3,a1
    4c44:	413789b3          	sub	s3,a5,s3
    4c48:	007803b3          	add	t2,a6,t2
    4c4c:	03812783          	lw	a5,56(sp)
    4c50:	00639393          	slli	t2,t2,0x6
    4c54:	01a5d713          	srli	a4,a1,0x1a
    4c58:	00e3e733          	or	a4,t2,a4
    4c5c:	01ad83b3          	add	t2,s11,s10
    4c60:	00f383b3          	add	t2,t2,a5
    4c64:	011938b3          	sltu	a7,s2,a7
    4c68:	007888b3          	add	a7,a7,t2
    4c6c:	02412783          	lw	a5,36(sp)
    4c70:	05812383          	lw	t2,88(sp)
    4c74:	011688b3          	add	a7,a3,a7
    4c78:	00689893          	slli	a7,a7,0x6
    4c7c:	0058e2b3          	or	t0,a7,t0
    4c80:	41e90933          	sub	s2,s2,t5
    4c84:	00770db3          	add	s11,a4,t2
    4c88:	00f282b3          	add	t0,t0,a5
    4c8c:	01252023          	sw	s2,0(a0)
    4c90:	01352823          	sw	s3,16(a0)
    4c94:	01b52a23          	sw	s11,20(a0)
    4c98:	00552223          	sw	t0,4(a0)
    4c9c:	08812483          	lw	s1,136(sp)
    4ca0:	08412903          	lw	s2,132(sp)
    4ca4:	08012983          	lw	s3,128(sp)
    4ca8:	07c12a03          	lw	s4,124(sp)
    4cac:	07812a83          	lw	s5,120(sp)
    4cb0:	07412b03          	lw	s6,116(sp)
    4cb4:	07012b83          	lw	s7,112(sp)
    4cb8:	06c12c03          	lw	s8,108(sp)
    4cbc:	06812c83          	lw	s9,104(sp)
    4cc0:	06412d03          	lw	s10,100(sp)
    4cc4:	06012d83          	lw	s11,96(sp)
    4cc8:	09010113          	addi	sp,sp,144
    4ccc:	00008067          	ret

00004cd0 <fe_invert>:
    4cd0:	f4010113          	addi	sp,sp,-192
    4cd4:	0b412423          	sw	s4,168(sp)
    4cd8:	00010a13          	mv	s4,sp
    4cdc:	0b512223          	sw	s5,164(sp)
    4ce0:	00050a93          	mv	s5,a0
    4ce4:	000a0513          	mv	a0,s4
    4ce8:	0a112e23          	sw	ra,188(sp)
    4cec:	0a812c23          	sw	s0,184(sp)
    4cf0:	0a912a23          	sw	s1,180(sp)
    4cf4:	00058413          	mv	s0,a1
    4cf8:	0b312623          	sw	s3,172(sp)
    4cfc:	0b212823          	sw	s2,176(sp)
    4d00:	02810993          	addi	s3,sp,40
    4d04:	c3cff0ef          	jal	ra,4140 <fe_sq>
    4d08:	000a0593          	mv	a1,s4
    4d0c:	00098513          	mv	a0,s3
    4d10:	c30ff0ef          	jal	ra,4140 <fe_sq>
    4d14:	00098593          	mv	a1,s3
    4d18:	00098513          	mv	a0,s3
    4d1c:	c24ff0ef          	jal	ra,4140 <fe_sq>
    4d20:	00040593          	mv	a1,s0
    4d24:	00098613          	mv	a2,s3
    4d28:	00098513          	mv	a0,s3
    4d2c:	f7dfd0ef          	jal	ra,2ca8 <fe_mul>
    4d30:	00098613          	mv	a2,s3
    4d34:	000a0593          	mv	a1,s4
    4d38:	000a0513          	mv	a0,s4
    4d3c:	f6dfd0ef          	jal	ra,2ca8 <fe_mul>
    4d40:	05010493          	addi	s1,sp,80
    4d44:	000a0593          	mv	a1,s4
    4d48:	00048513          	mv	a0,s1
    4d4c:	bf4ff0ef          	jal	ra,4140 <fe_sq>
    4d50:	00048613          	mv	a2,s1
    4d54:	00098593          	mv	a1,s3
    4d58:	00098513          	mv	a0,s3
    4d5c:	f4dfd0ef          	jal	ra,2ca8 <fe_mul>
    4d60:	00098593          	mv	a1,s3
    4d64:	00048513          	mv	a0,s1
    4d68:	bd8ff0ef          	jal	ra,4140 <fe_sq>
    4d6c:	00400413          	li	s0,4
    4d70:	fff40413          	addi	s0,s0,-1
    4d74:	00048593          	mv	a1,s1
    4d78:	00048513          	mv	a0,s1
    4d7c:	bc4ff0ef          	jal	ra,4140 <fe_sq>
    4d80:	fe0418e3          	bnez	s0,4d70 <fe_invert+0xa0>
    4d84:	00098613          	mv	a2,s3
    4d88:	00048593          	mv	a1,s1
    4d8c:	00098513          	mv	a0,s3
    4d90:	f19fd0ef          	jal	ra,2ca8 <fe_mul>
    4d94:	00098593          	mv	a1,s3
    4d98:	00048513          	mv	a0,s1
    4d9c:	ba4ff0ef          	jal	ra,4140 <fe_sq>
    4da0:	00900413          	li	s0,9
    4da4:	fff40413          	addi	s0,s0,-1
    4da8:	00048593          	mv	a1,s1
    4dac:	00048513          	mv	a0,s1
    4db0:	b90ff0ef          	jal	ra,4140 <fe_sq>
    4db4:	fe0418e3          	bnez	s0,4da4 <fe_invert+0xd4>
    4db8:	00098613          	mv	a2,s3
    4dbc:	00048593          	mv	a1,s1
    4dc0:	00048513          	mv	a0,s1
    4dc4:	ee5fd0ef          	jal	ra,2ca8 <fe_mul>
    4dc8:	07810913          	addi	s2,sp,120
    4dcc:	00048593          	mv	a1,s1
    4dd0:	00090513          	mv	a0,s2
    4dd4:	b6cff0ef          	jal	ra,4140 <fe_sq>
    4dd8:	01300413          	li	s0,19
    4ddc:	fff40413          	addi	s0,s0,-1
    4de0:	00090593          	mv	a1,s2
    4de4:	00090513          	mv	a0,s2
    4de8:	b58ff0ef          	jal	ra,4140 <fe_sq>
    4dec:	fe0418e3          	bnez	s0,4ddc <fe_invert+0x10c>
    4df0:	00048613          	mv	a2,s1
    4df4:	00090593          	mv	a1,s2
    4df8:	00048513          	mv	a0,s1
    4dfc:	eadfd0ef          	jal	ra,2ca8 <fe_mul>
    4e00:	00048593          	mv	a1,s1
    4e04:	00048513          	mv	a0,s1
    4e08:	b38ff0ef          	jal	ra,4140 <fe_sq>
    4e0c:	00900413          	li	s0,9
    4e10:	fff40413          	addi	s0,s0,-1
    4e14:	00048593          	mv	a1,s1
    4e18:	00048513          	mv	a0,s1
    4e1c:	b24ff0ef          	jal	ra,4140 <fe_sq>
    4e20:	fe0418e3          	bnez	s0,4e10 <fe_invert+0x140>
    4e24:	00098613          	mv	a2,s3
    4e28:	00048593          	mv	a1,s1
    4e2c:	00098513          	mv	a0,s3
    4e30:	e79fd0ef          	jal	ra,2ca8 <fe_mul>
    4e34:	00098593          	mv	a1,s3
    4e38:	00048513          	mv	a0,s1
    4e3c:	b04ff0ef          	jal	ra,4140 <fe_sq>
    4e40:	03100413          	li	s0,49
    4e44:	fff40413          	addi	s0,s0,-1
    4e48:	00048593          	mv	a1,s1
    4e4c:	00048513          	mv	a0,s1
    4e50:	af0ff0ef          	jal	ra,4140 <fe_sq>
    4e54:	fe0418e3          	bnez	s0,4e44 <fe_invert+0x174>
    4e58:	00098613          	mv	a2,s3
    4e5c:	00048593          	mv	a1,s1
    4e60:	00048513          	mv	a0,s1
    4e64:	e45fd0ef          	jal	ra,2ca8 <fe_mul>
    4e68:	00048593          	mv	a1,s1
    4e6c:	00090513          	mv	a0,s2
    4e70:	ad0ff0ef          	jal	ra,4140 <fe_sq>
    4e74:	06300413          	li	s0,99
    4e78:	fff40413          	addi	s0,s0,-1
    4e7c:	00090593          	mv	a1,s2
    4e80:	00090513          	mv	a0,s2
    4e84:	abcff0ef          	jal	ra,4140 <fe_sq>
    4e88:	fe0418e3          	bnez	s0,4e78 <fe_invert+0x1a8>
    4e8c:	00048613          	mv	a2,s1
    4e90:	00090593          	mv	a1,s2
    4e94:	00048513          	mv	a0,s1
    4e98:	e11fd0ef          	jal	ra,2ca8 <fe_mul>
    4e9c:	00048593          	mv	a1,s1
    4ea0:	00048513          	mv	a0,s1
    4ea4:	a9cff0ef          	jal	ra,4140 <fe_sq>
    4ea8:	03100413          	li	s0,49
    4eac:	fff40413          	addi	s0,s0,-1
    4eb0:	00048593          	mv	a1,s1
    4eb4:	00048513          	mv	a0,s1
    4eb8:	a88ff0ef          	jal	ra,4140 <fe_sq>
    4ebc:	fe0418e3          	bnez	s0,4eac <fe_invert+0x1dc>
    4ec0:	00098613          	mv	a2,s3
    4ec4:	00048593          	mv	a1,s1
    4ec8:	00098513          	mv	a0,s3
    4ecc:	dddfd0ef          	jal	ra,2ca8 <fe_mul>
    4ed0:	00098593          	mv	a1,s3
    4ed4:	00098513          	mv	a0,s3
    4ed8:	a68ff0ef          	jal	ra,4140 <fe_sq>
    4edc:	00400413          	li	s0,4
    4ee0:	fff40413          	addi	s0,s0,-1
    4ee4:	00098593          	mv	a1,s3
    4ee8:	00098513          	mv	a0,s3
    4eec:	a54ff0ef          	jal	ra,4140 <fe_sq>
    4ef0:	fe0418e3          	bnez	s0,4ee0 <fe_invert+0x210>
    4ef4:	000a0613          	mv	a2,s4
    4ef8:	00098593          	mv	a1,s3
    4efc:	000a8513          	mv	a0,s5
    4f00:	da9fd0ef          	jal	ra,2ca8 <fe_mul>
    4f04:	0bc12083          	lw	ra,188(sp)
    4f08:	0b812403          	lw	s0,184(sp)
    4f0c:	0b412483          	lw	s1,180(sp)
    4f10:	0b012903          	lw	s2,176(sp)
    4f14:	0ac12983          	lw	s3,172(sp)
    4f18:	0a812a03          	lw	s4,168(sp)
    4f1c:	0a412a83          	lw	s5,164(sp)
    4f20:	0c010113          	addi	sp,sp,192
    4f24:	00008067          	ret

00004f28 <fe_pow22523>:
    4f28:	f6010113          	addi	sp,sp,-160
    4f2c:	09312623          	sw	s3,140(sp)
    4f30:	00810993          	addi	s3,sp,8
    4f34:	09512223          	sw	s5,132(sp)
    4f38:	00050a93          	mv	s5,a0
    4f3c:	00098513          	mv	a0,s3
    4f40:	08112e23          	sw	ra,156(sp)
    4f44:	08812c23          	sw	s0,152(sp)
    4f48:	09212823          	sw	s2,144(sp)
    4f4c:	09412423          	sw	s4,136(sp)
    4f50:	03010913          	addi	s2,sp,48
    4f54:	00058a13          	mv	s4,a1
    4f58:	08912a23          	sw	s1,148(sp)
    4f5c:	9e4ff0ef          	jal	ra,4140 <fe_sq>
    4f60:	00098593          	mv	a1,s3
    4f64:	00090513          	mv	a0,s2
    4f68:	9d8ff0ef          	jal	ra,4140 <fe_sq>
    4f6c:	00090593          	mv	a1,s2
    4f70:	00090513          	mv	a0,s2
    4f74:	9ccff0ef          	jal	ra,4140 <fe_sq>
    4f78:	00090613          	mv	a2,s2
    4f7c:	000a0593          	mv	a1,s4
    4f80:	00090513          	mv	a0,s2
    4f84:	d25fd0ef          	jal	ra,2ca8 <fe_mul>
    4f88:	00090613          	mv	a2,s2
    4f8c:	00098593          	mv	a1,s3
    4f90:	00098513          	mv	a0,s3
    4f94:	d15fd0ef          	jal	ra,2ca8 <fe_mul>
    4f98:	00098593          	mv	a1,s3
    4f9c:	00098513          	mv	a0,s3
    4fa0:	9a0ff0ef          	jal	ra,4140 <fe_sq>
    4fa4:	00098613          	mv	a2,s3
    4fa8:	00090593          	mv	a1,s2
    4fac:	00098513          	mv	a0,s3
    4fb0:	cf9fd0ef          	jal	ra,2ca8 <fe_mul>
    4fb4:	00098593          	mv	a1,s3
    4fb8:	00090513          	mv	a0,s2
    4fbc:	984ff0ef          	jal	ra,4140 <fe_sq>
    4fc0:	00400413          	li	s0,4
    4fc4:	fff40413          	addi	s0,s0,-1
    4fc8:	00090593          	mv	a1,s2
    4fcc:	00090513          	mv	a0,s2
    4fd0:	970ff0ef          	jal	ra,4140 <fe_sq>
    4fd4:	fe0418e3          	bnez	s0,4fc4 <fe_pow22523+0x9c>
    4fd8:	00098613          	mv	a2,s3
    4fdc:	00090593          	mv	a1,s2
    4fe0:	00098513          	mv	a0,s3
    4fe4:	cc5fd0ef          	jal	ra,2ca8 <fe_mul>
    4fe8:	00098593          	mv	a1,s3
    4fec:	00090513          	mv	a0,s2
    4ff0:	950ff0ef          	jal	ra,4140 <fe_sq>
    4ff4:	00900413          	li	s0,9
    4ff8:	fff40413          	addi	s0,s0,-1
    4ffc:	00090593          	mv	a1,s2
    5000:	00090513          	mv	a0,s2
    5004:	93cff0ef          	jal	ra,4140 <fe_sq>
    5008:	fe0418e3          	bnez	s0,4ff8 <fe_pow22523+0xd0>
    500c:	00098613          	mv	a2,s3
    5010:	00090593          	mv	a1,s2
    5014:	00090513          	mv	a0,s2
    5018:	c91fd0ef          	jal	ra,2ca8 <fe_mul>
    501c:	05810493          	addi	s1,sp,88
    5020:	00090593          	mv	a1,s2
    5024:	00048513          	mv	a0,s1
    5028:	918ff0ef          	jal	ra,4140 <fe_sq>
    502c:	01300413          	li	s0,19
    5030:	fff40413          	addi	s0,s0,-1
    5034:	00048593          	mv	a1,s1
    5038:	00048513          	mv	a0,s1
    503c:	904ff0ef          	jal	ra,4140 <fe_sq>
    5040:	fe0418e3          	bnez	s0,5030 <fe_pow22523+0x108>
    5044:	00090613          	mv	a2,s2
    5048:	00048593          	mv	a1,s1
    504c:	00090513          	mv	a0,s2
    5050:	c59fd0ef          	jal	ra,2ca8 <fe_mul>
    5054:	00090593          	mv	a1,s2
    5058:	00090513          	mv	a0,s2
    505c:	8e4ff0ef          	jal	ra,4140 <fe_sq>
    5060:	00900413          	li	s0,9
    5064:	fff40413          	addi	s0,s0,-1
    5068:	00090593          	mv	a1,s2
    506c:	00090513          	mv	a0,s2
    5070:	8d0ff0ef          	jal	ra,4140 <fe_sq>
    5074:	fe0418e3          	bnez	s0,5064 <fe_pow22523+0x13c>
    5078:	00098613          	mv	a2,s3
    507c:	00090593          	mv	a1,s2
    5080:	00098513          	mv	a0,s3
    5084:	c25fd0ef          	jal	ra,2ca8 <fe_mul>
    5088:	00098593          	mv	a1,s3
    508c:	00090513          	mv	a0,s2
    5090:	8b0ff0ef          	jal	ra,4140 <fe_sq>
    5094:	03100413          	li	s0,49
    5098:	fff40413          	addi	s0,s0,-1
    509c:	00090593          	mv	a1,s2
    50a0:	00090513          	mv	a0,s2
    50a4:	89cff0ef          	jal	ra,4140 <fe_sq>
    50a8:	fe0418e3          	bnez	s0,5098 <fe_pow22523+0x170>
    50ac:	00098613          	mv	a2,s3
    50b0:	00090593          	mv	a1,s2
    50b4:	00090513          	mv	a0,s2
    50b8:	bf1fd0ef          	jal	ra,2ca8 <fe_mul>
    50bc:	00090593          	mv	a1,s2
    50c0:	00048513          	mv	a0,s1
    50c4:	87cff0ef          	jal	ra,4140 <fe_sq>
    50c8:	06300413          	li	s0,99
    50cc:	fff40413          	addi	s0,s0,-1
    50d0:	00048593          	mv	a1,s1
    50d4:	00048513          	mv	a0,s1
    50d8:	868ff0ef          	jal	ra,4140 <fe_sq>
    50dc:	fe0418e3          	bnez	s0,50cc <fe_pow22523+0x1a4>
    50e0:	00090613          	mv	a2,s2
    50e4:	00048593          	mv	a1,s1
    50e8:	00090513          	mv	a0,s2
    50ec:	bbdfd0ef          	jal	ra,2ca8 <fe_mul>
    50f0:	00090593          	mv	a1,s2
    50f4:	00090513          	mv	a0,s2
    50f8:	848ff0ef          	jal	ra,4140 <fe_sq>
    50fc:	03100413          	li	s0,49
    5100:	fff40413          	addi	s0,s0,-1
    5104:	00090593          	mv	a1,s2
    5108:	00090513          	mv	a0,s2
    510c:	834ff0ef          	jal	ra,4140 <fe_sq>
    5110:	fe0418e3          	bnez	s0,5100 <fe_pow22523+0x1d8>
    5114:	00098613          	mv	a2,s3
    5118:	00090593          	mv	a1,s2
    511c:	00098513          	mv	a0,s3
    5120:	b89fd0ef          	jal	ra,2ca8 <fe_mul>
    5124:	00098593          	mv	a1,s3
    5128:	00098513          	mv	a0,s3
    512c:	814ff0ef          	jal	ra,4140 <fe_sq>
    5130:	00098593          	mv	a1,s3
    5134:	00098513          	mv	a0,s3
    5138:	808ff0ef          	jal	ra,4140 <fe_sq>
    513c:	000a0613          	mv	a2,s4
    5140:	00098593          	mv	a1,s3
    5144:	000a8513          	mv	a0,s5
    5148:	b61fd0ef          	jal	ra,2ca8 <fe_mul>
    514c:	09c12083          	lw	ra,156(sp)
    5150:	09812403          	lw	s0,152(sp)
    5154:	09412483          	lw	s1,148(sp)
    5158:	09012903          	lw	s2,144(sp)
    515c:	08c12983          	lw	s3,140(sp)
    5160:	08812a03          	lw	s4,136(sp)
    5164:	08412a83          	lw	s5,132(sp)
    5168:	0a010113          	addi	sp,sp,160
    516c:	00008067          	ret

00005170 <fe_sq2>:
    5170:	f7010113          	addi	sp,sp,-144
    5174:	08912423          	sw	s1,136(sp)
    5178:	07612a23          	sw	s6,116(sp)
    517c:	07812623          	sw	s8,108(sp)
    5180:	00c5ab03          	lw	s6,12(a1)
    5184:	0045ac03          	lw	s8,4(a1)
    5188:	0005a483          	lw	s1,0(a1)
    518c:	0105a803          	lw	a6,16(a1)
    5190:	001c1613          	slli	a2,s8,0x1
    5194:	00149793          	slli	a5,s1,0x1
    5198:	001b1313          	slli	t1,s6,0x1
    519c:	07a12223          	sw	s10,100(sp)
    51a0:	07b12023          	sw	s11,96(sp)
    51a4:	02660d33          	mul	s10,a2,t1
    51a8:	0085af83          	lw	t6,8(a1)
    51ac:	00912223          	sw	s1,4(sp)
    51b0:	07512c23          	sw	s5,120(sp)
    51b4:	07912423          	sw	s9,104(sp)
    51b8:	0245ac83          	lw	s9,36(a1)
    51bc:	02600713          	li	a4,38
    51c0:	08812623          	sw	s0,140(sp)
    51c4:	07412e23          	sw	s4,124(sp)
    51c8:	0145a403          	lw	s0,20(a1)
    51cc:	03078db3          	mul	s11,a5,a6
    51d0:	01c5aa03          	lw	s4,28(a1)
    51d4:	0205a283          	lw	t0,32(a1)
    51d8:	09312023          	sw	s3,128(sp)
    51dc:	09212223          	sw	s2,132(sp)
    51e0:	00229693          	slli	a3,t0,0x2
    51e4:	005686b3          	add	a3,a3,t0
    51e8:	00269693          	slli	a3,a3,0x2
    51ec:	405686b3          	sub	a3,a3,t0
    51f0:	07712823          	sw	s7,112(sp)
    51f4:	01ad84b3          	add	s1,s11,s10
    51f8:	03ff8d33          	mul	s10,t6,t6
    51fc:	01b4bdb3          	sltu	s11,s1,s11
    5200:	01b12423          	sw	s11,8(sp)
    5204:	02000eb7          	lui	t4,0x2000
    5208:	001f9f13          	slli	t5,t6,0x1
    520c:	00181b93          	slli	s7,a6,0x1
    5210:	02661db3          	mulh	s11,a2,t1
    5214:	000d0a93          	mv	s5,s10
    5218:	03079d33          	mulh	s10,a5,a6
    521c:	01bd0db3          	add	s11,s10,s11
    5220:	00812d03          	lw	s10,8(sp)
    5224:	02ec88b3          	mul	a7,s9,a4
    5228:	01bd0db3          	add	s11,s10,s11
    522c:	01548d33          	add	s10,s1,s5
    5230:	000d0a93          	mv	s5,s10
    5234:	009d34b3          	sltu	s1,s10,s1
    5238:	03ff9d33          	mulh	s10,t6,t6
    523c:	02ea03b3          	mul	t2,s4,a4
    5240:	0185a703          	lw	a4,24(a1)
    5244:	00141593          	slli	a1,s0,0x1
    5248:	01ad8db3          	add	s11,s11,s10
    524c:	00171993          	slli	s3,a4,0x1
    5250:	01b48db3          	add	s11,s1,s11
    5254:	00271e13          	slli	t3,a4,0x2
    5258:	00ee0e33          	add	t3,t3,a4
    525c:	002e1e13          	slli	t3,t3,0x2
    5260:	40ee0e33          	sub	t3,t3,a4
    5264:	03158d33          	mul	s10,a1,a7
    5268:	01aa8d33          	add	s10,s5,s10
    526c:	02d99933          	mulh	s2,s3,a3
    5270:	015d34b3          	sltu	s1,s10,s5
    5274:	00048a93          	mv	s5,s1
    5278:	031594b3          	mulh	s1,a1,a7
    527c:	01212623          	sw	s2,12(sp)
    5280:	fc000937          	lui	s2,0xfc000
    5284:	009d8db3          	add	s11,s11,s1
    5288:	00c12483          	lw	s1,12(sp)
    528c:	01ba8db3          	add	s11,s5,s11
    5290:	009d8db3          	add	s11,s11,s1
    5294:	01b12423          	sw	s11,8(sp)
    5298:	02d98db3          	mul	s11,s3,a3
    529c:	02c809b3          	mul	s3,a6,a2
    52a0:	01bd0db3          	add	s11,s10,s11
    52a4:	000d8493          	mv	s1,s11
    52a8:	01adbdb3          	sltu	s11,s11,s10
    52ac:	00812d03          	lw	s10,8(sp)
    52b0:	01ad8db3          	add	s11,s11,s10
    52b4:	01b12423          	sw	s11,8(sp)
    52b8:	00098a93          	mv	s5,s3
    52bc:	028789b3          	mul	s3,a5,s0
    52c0:	01598d33          	add	s10,s3,s5
    52c4:	013d39b3          	sltu	s3,s10,s3
    52c8:	01312623          	sw	s3,12(sp)
    52cc:	027a09b3          	mul	s3,s4,t2
    52d0:	02c81db3          	mulh	s11,a6,a2
    52d4:	00098a93          	mv	s5,s3
    52d8:	028799b3          	mulh	s3,a5,s0
    52dc:	01b98db3          	add	s11,s3,s11
    52e0:	00c12983          	lw	s3,12(sp)
    52e4:	01b98db3          	add	s11,s3,s11
    52e8:	01b12823          	sw	s11,16(sp)
    52ec:	01548db3          	add	s11,s1,s5
    52f0:	009db9b3          	sltu	s3,s11,s1
    52f4:	000d8493          	mv	s1,s11
    52f8:	001d9d93          	slli	s11,s11,0x1
    52fc:	000d8a93          	mv	s5,s11
    5300:	01f4d493          	srli	s1,s1,0x1f
    5304:	01dd8db3          	add	s11,s11,t4
    5308:	00912c23          	sw	s1,24(sp)
    530c:	01add493          	srli	s1,s11,0x1a
    5310:	02912223          	sw	s1,36(sp)
    5314:	03eb04b3          	mul	s1,s6,t5
    5318:	01312623          	sw	s3,12(sp)
    531c:	015db9b3          	sltu	s3,s11,s5
    5320:	01b97db3          	and	s11,s2,s11
    5324:	01312e23          	sw	s3,28(sp)
    5328:	41ba89b3          	sub	s3,s5,s11
    532c:	05312a23          	sw	s3,84(sp)
    5330:	027a1db3          	mulh	s11,s4,t2
    5334:	009d04b3          	add	s1,s10,s1
    5338:	01a4bd33          	sltu	s10,s1,s10
    533c:	01a12a23          	sw	s10,20(sp)
    5340:	00812d03          	lw	s10,8(sp)
    5344:	02912023          	sw	s1,32(sp)
    5348:	013ab4b3          	sltu	s1,s5,s3
    534c:	00c12983          	lw	s3,12(sp)
    5350:	01bd0db3          	add	s11,s10,s11
    5354:	01b98db3          	add	s11,s3,s11
    5358:	01812983          	lw	s3,24(sp)
    535c:	001d9d93          	slli	s11,s11,0x1
    5360:	01b9edb3          	or	s11,s3,s11
    5364:	01c12983          	lw	s3,28(sp)
    5368:	01b98d33          	add	s10,s3,s11
    536c:	41ad8db3          	sub	s11,s11,s10
    5370:	01b12623          	sw	s11,12(sp)
    5374:	02e78db3          	mul	s11,a5,a4
    5378:	02412983          	lw	s3,36(sp)
    537c:	006d1a93          	slli	s5,s10,0x6
    5380:	013ae9b3          	or	s3,s5,s3
    5384:	41ad5a93          	srai	s5,s10,0x1a
    5388:	03512223          	sw	s5,36(sp)
    538c:	01012d03          	lw	s10,16(sp)
    5390:	000d8a93          	mv	s5,s11
    5394:	03eb1db3          	mulh	s11,s6,t5
    5398:	01bd0db3          	add	s11,s10,s11
    539c:	01412d03          	lw	s10,20(sp)
    53a0:	01bd0d33          	add	s10,s10,s11
    53a4:	00c12d83          	lw	s11,12(sp)
    53a8:	01a12423          	sw	s10,8(sp)
    53ac:	409d8d33          	sub	s10,s11,s1
    53b0:	03170db3          	mul	s11,a4,a7
    53b4:	05a12023          	sw	s10,64(sp)
    53b8:	02012d03          	lw	s10,32(sp)
    53bc:	01bd0db3          	add	s11,s10,s11
    53c0:	000d8493          	mv	s1,s11
    53c4:	01adbd33          	sltu	s10,s11,s10
    53c8:	02b60db3          	mul	s11,a2,a1
    53cc:	01a12623          	sw	s10,12(sp)
    53d0:	01ba8d33          	add	s10,s5,s11
    53d4:	015d3ab3          	sltu	s5,s10,s5
    53d8:	01512823          	sw	s5,16(sp)
    53dc:	03171ab3          	mulh	s5,a4,a7
    53e0:	00812d83          	lw	s11,8(sp)
    53e4:	015d8db3          	add	s11,s11,s5
    53e8:	00c12a83          	lw	s5,12(sp)
    53ec:	01ba8db3          	add	s11,s5,s11
    53f0:	001a1a93          	slli	s5,s4,0x1
    53f4:	02da8ab3          	mul	s5,s5,a3
    53f8:	01b12423          	sw	s11,8(sp)
    53fc:	01512623          	sw	s5,12(sp)
    5400:	02b61db3          	mulh	s11,a2,a1
    5404:	02e79ab3          	mulh	s5,a5,a4
    5408:	01ba8db3          	add	s11,s5,s11
    540c:	01012a83          	lw	s5,16(sp)
    5410:	01ba8db3          	add	s11,s5,s11
    5414:	00c12a83          	lw	s5,12(sp)
    5418:	01b12823          	sw	s11,16(sp)
    541c:	01548db3          	add	s11,s1,s5
    5420:	009db4b3          	sltu	s1,s11,s1
    5424:	01fdda93          	srli	s5,s11,0x1f
    5428:	001d9d93          	slli	s11,s11,0x1
    542c:	00912623          	sw	s1,12(sp)
    5430:	01b984b3          	add	s1,s3,s11
    5434:	01000db7          	lui	s11,0x1000
    5438:	01b48db3          	add	s11,s1,s11
    543c:	01512a23          	sw	s5,20(sp)
    5440:	000d8a93          	mv	s5,s11
    5444:	000a8d93          	mv	s11,s5
    5448:	009abab3          	sltu	s5,s5,s1
    544c:	01512c23          	sw	s5,24(sp)
    5450:	03b12423          	sw	s11,40(sp)
    5454:	001a1a93          	slli	s5,s4,0x1
    5458:	019ddd93          	srli	s11,s11,0x19
    545c:	03b12623          	sw	s11,44(sp)
    5460:	02da9db3          	mulh	s11,s5,a3
    5464:	02812a83          	lw	s5,40(sp)
    5468:	0134b9b3          	sltu	s3,s1,s3
    546c:	01b12e23          	sw	s11,28(sp)
    5470:	03e80db3          	mul	s11,a6,t5
    5474:	01bd0db3          	add	s11,s10,s11
    5478:	03b12023          	sw	s11,32(sp)
    547c:	01adbd33          	sltu	s10,s11,s10
    5480:	fe000db7          	lui	s11,0xfe000
    5484:	015dfdb3          	and	s11,s11,s5
    5488:	41b484b3          	sub	s1,s1,s11
    548c:	00812a83          	lw	s5,8(sp)
    5490:	04912c23          	sw	s1,88(sp)
    5494:	01c12483          	lw	s1,28(sp)
    5498:	009a8db3          	add	s11,s5,s1
    549c:	00c12483          	lw	s1,12(sp)
    54a0:	01412a83          	lw	s5,20(sp)
    54a4:	01b48db3          	add	s11,s1,s11
    54a8:	001d9d93          	slli	s11,s11,0x1
    54ac:	01baedb3          	or	s11,s5,s11
    54b0:	02412a83          	lw	s5,36(sp)
    54b4:	01ba8db3          	add	s11,s5,s11
    54b8:	01812a83          	lw	s5,24(sp)
    54bc:	01b98db3          	add	s11,s3,s11
    54c0:	01ba84b3          	add	s1,s5,s11
    54c4:	02c12a83          	lw	s5,44(sp)
    54c8:	00749d93          	slli	s11,s1,0x7
    54cc:	4194d493          	srai	s1,s1,0x19
    54d0:	015de9b3          	or	s3,s11,s5
    54d4:	03e81db3          	mulh	s11,a6,t5
    54d8:	01012a83          	lw	s5,16(sp)
    54dc:	02912223          	sw	s1,36(sp)
    54e0:	01ba8db3          	add	s11,s5,s11
    54e4:	026b0ab3          	mul	s5,s6,t1
    54e8:	01bd0db3          	add	s11,s10,s11
    54ec:	02012d03          	lw	s10,32(sp)
    54f0:	015d04b3          	add	s1,s10,s5
    54f4:	001a1a93          	slli	s5,s4,0x1
    54f8:	031a8ab3          	mul	s5,s5,a7
    54fc:	01a4bd33          	sltu	s10,s1,s10
    5500:	01512423          	sw	s5,8(sp)
    5504:	026b1ab3          	mulh	s5,s6,t1
    5508:	015d8db3          	add	s11,s11,s5
    550c:	001a1a93          	slli	s5,s4,0x1
    5510:	01bd0db3          	add	s11,s10,s11
    5514:	031a9d33          	mulh	s10,s5,a7
    5518:	00812a83          	lw	s5,8(sp)
    551c:	01a12623          	sw	s10,12(sp)
    5520:	01548d33          	add	s10,s1,s5
    5524:	009d3ab3          	sltu	s5,s10,s1
    5528:	01512423          	sw	s5,8(sp)
    552c:	00c12a83          	lw	s5,12(sp)
    5530:	015d8db3          	add	s11,s11,s5
    5534:	00812a83          	lw	s5,8(sp)
    5538:	01ba8ab3          	add	s5,s5,s11
    553c:	02d28db3          	mul	s11,t0,a3
    5540:	01512423          	sw	s5,8(sp)
    5544:	01bd0db3          	add	s11,s10,s11
    5548:	01adbab3          	sltu	s5,s11,s10
    554c:	01fddd13          	srli	s10,s11,0x1f
    5550:	001d9d93          	slli	s11,s11,0x1
    5554:	01b984b3          	add	s1,s3,s11
    5558:	01d48db3          	add	s11,s1,t4
    555c:	0134b9b3          	sltu	s3,s1,s3
    5560:	01312c23          	sw	s3,24(sp)
    5564:	01add993          	srli	s3,s11,0x1a
    5568:	01512623          	sw	s5,12(sp)
    556c:	03312023          	sw	s3,32(sp)
    5570:	02c70ab3          	mul	s5,a4,a2
    5574:	01a12a23          	sw	s10,20(sp)
    5578:	009dbd33          	sltu	s10,s11,s1
    557c:	01b97db3          	and	s11,s2,s11
    5580:	41b48db3          	sub	s11,s1,s11
    5584:	01b52c23          	sw	s11,24(a0)
    5588:	01a12e23          	sw	s10,28(sp)
    558c:	034789b3          	mul	s3,a5,s4
    5590:	02d29db3          	mulh	s11,t0,a3
    5594:	01598d33          	add	s10,s3,s5
    5598:	00812a83          	lw	s5,8(sp)
    559c:	013d39b3          	sltu	s3,s10,s3
    55a0:	01312823          	sw	s3,16(sp)
    55a4:	01ba8db3          	add	s11,s5,s11
    55a8:	00c12a83          	lw	s5,12(sp)
    55ac:	01ba8db3          	add	s11,s5,s11
    55b0:	01412a83          	lw	s5,20(sp)
    55b4:	001d9d93          	slli	s11,s11,0x1
    55b8:	01baedb3          	or	s11,s5,s11
    55bc:	02412a83          	lw	s5,36(sp)
    55c0:	01ba8db3          	add	s11,s5,s11
    55c4:	01812a83          	lw	s5,24(sp)
    55c8:	01ba8db3          	add	s11,s5,s11
    55cc:	01c12a83          	lw	s5,28(sp)
    55d0:	01ba8db3          	add	s11,s5,s11
    55d4:	02012a83          	lw	s5,32(sp)
    55d8:	000d8493          	mv	s1,s11
    55dc:	006d9d93          	slli	s11,s11,0x6
    55e0:	015dedb3          	or	s11,s11,s5
    55e4:	000d8993          	mv	s3,s11
    55e8:	03479ab3          	mulh	s5,a5,s4
    55ec:	41a4d493          	srai	s1,s1,0x1a
    55f0:	02912a23          	sw	s1,52(sp)
    55f4:	02600493          	li	s1,38
    55f8:	02c71db3          	mulh	s11,a4,a2
    55fc:	01ba8db3          	add	s11,s5,s11
    5600:	01012a83          	lw	s5,16(sp)
    5604:	029404b3          	mul	s1,s0,s1
    5608:	01ba8db3          	add	s11,s5,s11
    560c:	03e40ab3          	mul	s5,s0,t5
    5610:	00912623          	sw	s1,12(sp)
    5614:	015d04b3          	add	s1,s10,s5
    5618:	01a4bab3          	sltu	s5,s1,s10
    561c:	01512423          	sw	s5,8(sp)
    5620:	03e41ab3          	mulh	s5,s0,t5
    5624:	00412d03          	lw	s10,4(sp)
    5628:	015d8db3          	add	s11,s11,s5
    562c:	00812a83          	lw	s5,8(sp)
    5630:	03ad0d33          	mul	s10,s10,s10
    5634:	01ba8ab3          	add	s5,s5,s11
    5638:	01512823          	sw	s5,16(sp)
    563c:	03160db3          	mul	s11,a2,a7
    5640:	000d0a93          	mv	s5,s10
    5644:	01bd0d33          	add	s10,s10,s11
    5648:	015d3db3          	sltu	s11,s10,s5
    564c:	001a1a93          	slli	s5,s4,0x1
    5650:	01b12423          	sw	s11,8(sp)
    5654:	03560db3          	mul	s11,a2,s5
    5658:	03a12023          	sw	s10,32(sp)
    565c:	02680ab3          	mul	s5,a6,t1
    5660:	01548d33          	add	s10,s1,s5
    5664:	009d3ab3          	sltu	s5,s10,s1
    5668:	01512a23          	sw	s5,20(sp)
    566c:	02578ab3          	mul	s5,a5,t0
    5670:	00412483          	lw	s1,4(sp)
    5674:	03a12223          	sw	s10,36(sp)
    5678:	02949d33          	mulh	s10,s1,s1
    567c:	01ba84b3          	add	s1,s5,s11
    5680:	0154bdb3          	sltu	s11,s1,s5
    5684:	01b12c23          	sw	s11,24(sp)
    5688:	02912823          	sw	s1,48(sp)
    568c:	001a1493          	slli	s1,s4,0x1
    5690:	03161db3          	mulh	s11,a2,a7
    5694:	000d8a93          	mv	s5,s11
    5698:	02681db3          	mulh	s11,a6,t1
    569c:	015d0d33          	add	s10,s10,s5
    56a0:	00812a83          	lw	s5,8(sp)
    56a4:	01aa8ab3          	add	s5,s5,s10
    56a8:	01512223          	sw	s5,4(sp)
    56ac:	01012a83          	lw	s5,16(sp)
    56b0:	01ba8db3          	add	s11,s5,s11
    56b4:	01412a83          	lw	s5,20(sp)
    56b8:	02579d33          	mulh	s10,a5,t0
    56bc:	01ba8db3          	add	s11,s5,s11
    56c0:	01b12a23          	sw	s11,20(sp)
    56c4:	01812a83          	lw	s5,24(sp)
    56c8:	029614b3          	mulh	s1,a2,s1
    56cc:	02df0db3          	mul	s11,t5,a3
    56d0:	009d04b3          	add	s1,s10,s1
    56d4:	02012d03          	lw	s10,32(sp)
    56d8:	009a8ab3          	add	s5,s5,s1
    56dc:	01512e23          	sw	s5,28(sp)
    56e0:	01bd0db3          	add	s11,s10,s11
    56e4:	031284b3          	mul	s1,t0,a7
    56e8:	03b12623          	sw	s11,44(sp)
    56ec:	01adbdb3          	sltu	s11,s11,s10
    56f0:	01b12823          	sw	s11,16(sp)
    56f4:	02412d03          	lw	s10,36(sp)
    56f8:	03e70db3          	mul	s11,a4,t5
    56fc:	009d04b3          	add	s1,s10,s1
    5700:	01a4bd33          	sltu	s10,s1,s10
    5704:	01a12c23          	sw	s10,24(sp)
    5708:	01000d37          	lui	s10,0x1000
    570c:	000d8a93          	mv	s5,s11
    5710:	01f4dd93          	srli	s11,s1,0x1f
    5714:	00149493          	slli	s1,s1,0x1
    5718:	009984b3          	add	s1,s3,s1
    571c:	03b12023          	sw	s11,32(sp)
    5720:	0134b9b3          	sltu	s3,s1,s3
    5724:	01a48db3          	add	s11,s1,s10
    5728:	03312223          	sw	s3,36(sp)
    572c:	009db9b3          	sltu	s3,s11,s1
    5730:	03312423          	sw	s3,40(sp)
    5734:	03012d03          	lw	s10,48(sp)
    5738:	019dd993          	srli	s3,s11,0x19
    573c:	01312423          	sw	s3,8(sp)
    5740:	015d09b3          	add	s3,s10,s5
    5744:	03312823          	sw	s3,48(sp)
    5748:	01a9b9b3          	sltu	s3,s3,s10
    574c:	02df1d33          	mulh	s10,t5,a3
    5750:	fe000ab7          	lui	s5,0xfe000
    5754:	01bafdb3          	and	s11,s5,s11
    5758:	41b48db3          	sub	s11,s1,s11
    575c:	00412a83          	lw	s5,4(sp)
    5760:	01b52e23          	sw	s11,28(a0)
    5764:	031294b3          	mulh	s1,t0,a7
    5768:	01aa8db3          	add	s11,s5,s10
    576c:	01012a83          	lw	s5,16(sp)
    5770:	01ba8db3          	add	s11,s5,s11
    5774:	01412a83          	lw	s5,20(sp)
    5778:	01b12223          	sw	s11,4(sp)
    577c:	009a8db3          	add	s11,s5,s1
    5780:	01812a83          	lw	s5,24(sp)
    5784:	03e71d33          	mulh	s10,a4,t5
    5788:	01ba8db3          	add	s11,s5,s11
    578c:	02012a83          	lw	s5,32(sp)
    5790:	001d9d93          	slli	s11,s11,0x1
    5794:	01baedb3          	or	s11,s5,s11
    5798:	03412a83          	lw	s5,52(sp)
    579c:	01ba8db3          	add	s11,s5,s11
    57a0:	02412a83          	lw	s5,36(sp)
    57a4:	01ba8db3          	add	s11,s5,s11
    57a8:	02812a83          	lw	s5,40(sp)
    57ac:	01ba8db3          	add	s11,s5,s11
    57b0:	00812a83          	lw	s5,8(sp)
    57b4:	007d9493          	slli	s1,s11,0x7
    57b8:	0154e4b3          	or	s1,s1,s5
    57bc:	01c12a83          	lw	s5,28(sp)
    57c0:	00912423          	sw	s1,8(sp)
    57c4:	027304b3          	mul	s1,t1,t2
    57c8:	01aa8ab3          	add	s5,s5,s10
    57cc:	000a8d13          	mv	s10,s5
    57d0:	01a98ab3          	add	s5,s3,s10
    57d4:	01512a23          	sw	s5,20(sp)
    57d8:	419dda93          	srai	s5,s11,0x19
    57dc:	02c12d03          	lw	s10,44(sp)
    57e0:	05512e23          	sw	s5,92(sp)
    57e4:	00412a83          	lw	s5,4(sp)
    57e8:	02b30db3          	mul	s11,t1,a1
    57ec:	009d04b3          	add	s1,s10,s1
    57f0:	01a4bd33          	sltu	s10,s1,s10
    57f4:	01a12823          	sw	s10,16(sp)
    57f8:	03012d03          	lw	s10,48(sp)
    57fc:	01bd09b3          	add	s3,s10,s11
    5800:	01a9bdb3          	sltu	s11,s3,s10
    5804:	02731d33          	mulh	s10,t1,t2
    5808:	01b12c23          	sw	s11,24(sp)
    580c:	02b31db3          	mulh	s11,t1,a1
    5810:	01aa8ab3          	add	s5,s5,s10
    5814:	01012d03          	lw	s10,16(sp)
    5818:	015d0d33          	add	s10,s10,s5
    581c:	01412a83          	lw	s5,20(sp)
    5820:	01a12223          	sw	s10,4(sp)
    5824:	01ba8db3          	add	s11,s5,s11
    5828:	01812a83          	lw	s5,24(sp)
    582c:	03878d33          	mul	s10,a5,s8
    5830:	01ba8db3          	add	s11,s5,s11
    5834:	03b12023          	sw	s11,32(sp)
    5838:	03cb8db3          	mul	s11,s7,t3
    583c:	031f8ab3          	mul	s5,t6,a7
    5840:	01b48db3          	add	s11,s1,s11
    5844:	009db4b3          	sltu	s1,s11,s1
    5848:	00912823          	sw	s1,16(sp)
    584c:	000d0493          	mv	s1,s10
    5850:	015d0d33          	add	s10,s10,s5
    5854:	009d3ab3          	sltu	s5,s10,s1
    5858:	030804b3          	mul	s1,a6,a6
    585c:	01512c23          	sw	s5,24(sp)
    5860:	009984b3          	add	s1,s3,s1
    5864:	0134b9b3          	sltu	s3,s1,s3
    5868:	03312223          	sw	s3,36(sp)
    586c:	03cb99b3          	mulh	s3,s7,t3
    5870:	02912423          	sw	s1,40(sp)
    5874:	00412a83          	lw	s5,4(sp)
    5878:	013a84b3          	add	s1,s5,s3
    587c:	01012983          	lw	s3,16(sp)
    5880:	01812a83          	lw	s5,24(sp)
    5884:	009984b3          	add	s1,s3,s1
    5888:	00912a23          	sw	s1,20(sp)
    588c:	038799b3          	mulh	s3,a5,s8
    5890:	031f94b3          	mulh	s1,t6,a7
    5894:	009984b3          	add	s1,s3,s1
    5898:	030819b3          	mulh	s3,a6,a6
    589c:	009a8ab3          	add	s5,s5,s1
    58a0:	01512e23          	sw	s5,28(sp)
    58a4:	02012a83          	lw	s5,32(sp)
    58a8:	013a84b3          	add	s1,s5,s3
    58ac:	02412a83          	lw	s5,36(sp)
    58b0:	009a8ab3          	add	s5,s5,s1
    58b4:	00c12483          	lw	s1,12(sp)
    58b8:	03512223          	sw	s5,36(sp)
    58bc:	02d30ab3          	mul	s5,t1,a3
    58c0:	028484b3          	mul	s1,s1,s0
    58c4:	009d84b3          	add	s1,s11,s1
    58c8:	01b4bdb3          	sltu	s11,s1,s11
    58cc:	01b12c23          	sw	s11,24(sp)
    58d0:	00149d93          	slli	s11,s1,0x1
    58d4:	01dd89b3          	add	s3,s11,t4
    58d8:	01f4d493          	srli	s1,s1,0x1f
    58dc:	02912823          	sw	s1,48(sp)
    58e0:	01b9b4b3          	sltu	s1,s3,s11
    58e4:	02912c23          	sw	s1,56(sp)
    58e8:	01a9d493          	srli	s1,s3,0x1a
    58ec:	00912223          	sw	s1,4(sp)
    58f0:	013974b3          	and	s1,s2,s3
    58f4:	409d84b3          	sub	s1,s11,s1
    58f8:	015d09b3          	add	s3,s10,s5
    58fc:	00912823          	sw	s1,16(sp)
    5900:	01a9bd33          	sltu	s10,s3,s10
    5904:	03a12023          	sw	s10,32(sp)
    5908:	01012d03          	lw	s10,16(sp)
    590c:	031c84b3          	mul	s1,s9,a7
    5910:	05312623          	sw	s3,76(sp)
    5914:	01adbdb3          	sltu	s11,s11,s10
    5918:	03b12e23          	sw	s11,60(sp)
    591c:	02812983          	lw	s3,40(sp)
    5920:	02c28db3          	mul	s11,t0,a2
    5924:	009984b3          	add	s1,s3,s1
    5928:	01f4dd13          	srli	s10,s1,0x1f
    592c:	03a12a23          	sw	s10,52(sp)
    5930:	000d8a93          	mv	s5,s11
    5934:	0134bdb3          	sltu	s11,s1,s3
    5938:	00812983          	lw	s3,8(sp)
    593c:	00149493          	slli	s1,s1,0x1
    5940:	03b12423          	sw	s11,40(sp)
    5944:	009984b3          	add	s1,s3,s1
    5948:	01d48db3          	add	s11,s1,t4
    594c:	0134bd33          	sltu	s10,s1,s3
    5950:	05a12223          	sw	s10,68(sp)
    5954:	01addd13          	srli	s10,s11,0x1a
    5958:	01a12423          	sw	s10,8(sp)
    595c:	00c12d03          	lw	s10,12(sp)
    5960:	009db9b3          	sltu	s3,s11,s1
    5964:	05312423          	sw	s3,72(sp)
    5968:	028d1d33          	mulh	s10,s10,s0
    596c:	039789b3          	mul	s3,a5,s9
    5970:	01a12623          	sw	s10,12(sp)
    5974:	01598d33          	add	s10,s3,s5
    5978:	05a12823          	sw	s10,80(sp)
    597c:	013d39b3          	sltu	s3,s10,s3
    5980:	01b97d33          	and	s10,s2,s11
    5984:	03312623          	sw	s3,44(sp)
    5988:	41a484b3          	sub	s1,s1,s10
    598c:	00c12983          	lw	s3,12(sp)
    5990:	01412d83          	lw	s11,20(sp)
    5994:	02952023          	sw	s1,32(a0)
    5998:	01812a83          	lw	s5,24(sp)
    599c:	013d8db3          	add	s11,s11,s3
    59a0:	02d314b3          	mulh	s1,t1,a3
    59a4:	01ba8db3          	add	s11,s5,s11
    59a8:	03012a83          	lw	s5,48(sp)
    59ac:	001d9d93          	slli	s11,s11,0x1
    59b0:	01baedb3          	or	s11,s5,s11
    59b4:	03812a83          	lw	s5,56(sp)
    59b8:	01ba8d33          	add	s10,s5,s11
    59bc:	00412a83          	lw	s5,4(sp)
    59c0:	006d1993          	slli	s3,s10,0x6
    59c4:	41ad8db3          	sub	s11,s11,s10
    59c8:	0159e9b3          	or	s3,s3,s5
    59cc:	01c12a83          	lw	s5,28(sp)
    59d0:	01312223          	sw	s3,4(sp)
    59d4:	41ad5993          	srai	s3,s10,0x1a
    59d8:	009a84b3          	add	s1,s5,s1
    59dc:	031c9d33          	mulh	s10,s9,a7
    59e0:	02012a83          	lw	s5,32(sp)
    59e4:	03312823          	sw	s3,48(sp)
    59e8:	04c12983          	lw	s3,76(sp)
    59ec:	009a84b3          	add	s1,s5,s1
    59f0:	00912623          	sw	s1,12(sp)
    59f4:	03c12483          	lw	s1,60(sp)
    59f8:	05c12a83          	lw	s5,92(sp)
    59fc:	409d84b3          	sub	s1,s11,s1
    5a00:	02412d83          	lw	s11,36(sp)
    5a04:	02912023          	sw	s1,32(sp)
    5a08:	03979cb3          	mulh	s9,a5,s9
    5a0c:	01ad84b3          	add	s1,s11,s10
    5a10:	02812d83          	lw	s11,40(sp)
    5a14:	009d84b3          	add	s1,s11,s1
    5a18:	03412d83          	lw	s11,52(sp)
    5a1c:	00149493          	slli	s1,s1,0x1
    5a20:	009de4b3          	or	s1,s11,s1
    5a24:	009a84b3          	add	s1,s5,s1
    5a28:	04412a83          	lw	s5,68(sp)
    5a2c:	02c292b3          	mulh	t0,t0,a2
    5a30:	009a84b3          	add	s1,s5,s1
    5a34:	04812a83          	lw	s5,72(sp)
    5a38:	009a8d33          	add	s10,s5,s1
    5a3c:	00812a83          	lw	s5,8(sp)
    5a40:	006d1493          	slli	s1,s10,0x6
    5a44:	0154edb3          	or	s11,s1,s5
    5a48:	01b12423          	sw	s11,8(sp)
    5a4c:	41ad5d93          	srai	s11,s10,0x1a
    5a50:	03f784b3          	mul	s1,a5,t6
    5a54:	03b12a23          	sw	s11,52(sp)
    5a58:	02c12a83          	lw	s5,44(sp)
    5a5c:	005c82b3          	add	t0,s9,t0
    5a60:	005a82b3          	add	t0,s5,t0
    5a64:	00512c23          	sw	t0,24(sp)
    5a68:	02cc0db3          	mul	s11,s8,a2
    5a6c:	02780d33          	mul	s10,a6,t2
    5a70:	01b48db3          	add	s11,s1,s11
    5a74:	009dbab3          	sltu	s5,s11,s1
    5a78:	01512a23          	sw	s5,20(sp)
    5a7c:	00c12a83          	lw	s5,12(sp)
    5a80:	027814b3          	mulh	s1,a6,t2
    5a84:	01a98d33          	add	s10,s3,s10
    5a88:	013d3cb3          	sltu	s9,s10,s3
    5a8c:	05012983          	lw	s3,80(sp)
    5a90:	03ea02b3          	mul	t0,s4,t5
    5a94:	009a84b3          	add	s1,s5,s1
    5a98:	009c8cb3          	add	s9,s9,s1
    5a9c:	01412a83          	lw	s5,20(sp)
    5aa0:	01912623          	sw	s9,12(sp)
    5aa4:	02cc1c33          	mulh	s8,s8,a2
    5aa8:	005982b3          	add	t0,s3,t0
    5aac:	0132b9b3          	sltu	s3,t0,s3
    5ab0:	03ea1f33          	mulh	t5,s4,t5
    5ab4:	03f79a33          	mulh	s4,a5,t6
    5ab8:	03c584b3          	mul	s1,a1,t3
    5abc:	018a0c33          	add	s8,s4,s8
    5ac0:	018a8c33          	add	s8,s5,s8
    5ac4:	01812a83          	lw	s5,24(sp)
    5ac8:	01812a23          	sw	s8,20(sp)
    5acc:	01ea8f33          	add	t5,s5,t5
    5ad0:	01e98f33          	add	t5,s3,t5
    5ad4:	000f0993          	mv	s3,t5
    5ad8:	03130cb3          	mul	s9,t1,a7
    5adc:	009d0f33          	add	t5,s10,s1
    5ae0:	01ff5a13          	srli	s4,t5,0x1f
    5ae4:	01412c23          	sw	s4,24(sp)
    5ae8:	00412a03          	lw	s4,4(sp)
    5aec:	01af3d33          	sltu	s10,t5,s10
    5af0:	001f1f13          	slli	t5,t5,0x1
    5af4:	01ea0f33          	add	t5,s4,t5
    5af8:	014f3a33          	sltu	s4,t5,s4
    5afc:	010004b7          	lui	s1,0x1000
    5b00:	019d8cb3          	add	s9,s11,s9
    5b04:	01bcbab3          	sltu	s5,s9,s11
    5b08:	01412e23          	sw	s4,28(sp)
    5b0c:	009f04b3          	add	s1,t5,s1
    5b10:	01512223          	sw	s5,4(sp)
    5b14:	fe000ab7          	lui	s5,0xfe000
    5b18:	01e4bc33          	sltu	s8,s1,t5
    5b1c:	0194da13          	srli	s4,s1,0x19
    5b20:	009af4b3          	and	s1,s5,s1
    5b24:	409f0db3          	sub	s11,t5,s1
    5b28:	03c594b3          	mulh	s1,a1,t3
    5b2c:	00c12a83          	lw	s5,12(sp)
    5b30:	01812f03          	lw	t5,24(sp)
    5b34:	03b12423          	sw	s11,40(sp)
    5b38:	03812223          	sw	s8,36(sp)
    5b3c:	009a84b3          	add	s1,s5,s1
    5b40:	009d04b3          	add	s1,s10,s1
    5b44:	00149493          	slli	s1,s1,0x1
    5b48:	03131db3          	mulh	s11,t1,a7
    5b4c:	009f64b3          	or	s1,t5,s1
    5b50:	03012f03          	lw	t5,48(sp)
    5b54:	01412a83          	lw	s5,20(sp)
    5b58:	009f04b3          	add	s1,t5,s1
    5b5c:	01c12f03          	lw	t5,28(sp)
    5b60:	009f04b3          	add	s1,t5,s1
    5b64:	02670c33          	mul	s8,a4,t1
    5b68:	02412f03          	lw	t5,36(sp)
    5b6c:	01ba8db3          	add	s11,s5,s11
    5b70:	00412a83          	lw	s5,4(sp)
    5b74:	009f0f33          	add	t5,t5,s1
    5b78:	007f1493          	slli	s1,t5,0x7
    5b7c:	419f5f13          	srai	t5,t5,0x19
    5b80:	01e12623          	sw	t5,12(sp)
    5b84:	01ba8db3          	add	s11,s5,s11
    5b88:	0144ea33          	or	s4,s1,s4
    5b8c:	02671333          	mulh	t1,a4,t1
    5b90:	01828c33          	add	s8,t0,s8
    5b94:	005c32b3          	sltu	t0,s8,t0
    5b98:	03768f33          	mul	t5,a3,s7
    5b9c:	00698333          	add	t1,s3,t1
    5ba0:	00628ab3          	add	s5,t0,t1
    5ba4:	03740333          	mul	t1,s0,s7
    5ba8:	01ec8f33          	add	t5,s9,t5
    5bac:	019f3d33          	sltu	s10,t5,s9
    5bb0:	00812c83          	lw	s9,8(sp)
    5bb4:	037694b3          	mulh	s1,a3,s7
    5bb8:	006c0333          	add	t1,s8,t1
    5bbc:	01f35293          	srli	t0,t1,0x1f
    5bc0:	01833c33          	sltu	s8,t1,s8
    5bc4:	00131313          	slli	t1,t1,0x1
    5bc8:	006c8333          	add	t1,s9,t1
    5bcc:	00028993          	mv	s3,t0
    5bd0:	010002b7          	lui	t0,0x1000
    5bd4:	005302b3          	add	t0,t1,t0
    5bd8:	01933cb3          	sltu	s9,t1,s9
    5bdc:	03741433          	mulh	s0,s0,s7
    5be0:	01912223          	sw	s9,4(sp)
    5be4:	009d8db3          	add	s11,s11,s1
    5be8:	0062bcb3          	sltu	s9,t0,t1
    5bec:	fe0004b7          	lui	s1,0xfe000
    5bf0:	01912423          	sw	s9,8(sp)
    5bf4:	0192dc93          	srli	s9,t0,0x19
    5bf8:	0054f2b3          	and	t0,s1,t0
    5bfc:	405302b3          	sub	t0,t1,t0
    5c00:	02552223          	sw	t0,36(a0)
    5c04:	008a8433          	add	s0,s5,s0
    5c08:	03412283          	lw	t0,52(sp)
    5c0c:	008c0c33          	add	s8,s8,s0
    5c10:	001c1c13          	slli	s8,s8,0x1
    5c14:	0189ec33          	or	s8,s3,s8
    5c18:	01828c33          	add	s8,t0,s8
    5c1c:	00412283          	lw	t0,4(sp)
    5c20:	02758333          	mul	t1,a1,t2
    5c24:	01bd0db3          	add	s11,s10,s11
    5c28:	01828c33          	add	s8,t0,s8
    5c2c:	00812283          	lw	t0,8(sp)
    5c30:	01828c33          	add	s8,t0,s8
    5c34:	007c1293          	slli	t0,s8,0x7
    5c38:	0192ecb3          	or	s9,t0,s9
    5c3c:	419c5a93          	srai	s5,s8,0x19
    5c40:	02759d33          	mulh	s10,a1,t2
    5c44:	006f0333          	add	t1,t5,t1
    5c48:	01e33f33          	sltu	t5,t1,t5
    5c4c:	03c702b3          	mul	t0,a4,t3
    5c50:	01ad8db3          	add	s11,s11,s10
    5c54:	01bf0db3          	add	s11,t5,s11
    5c58:	03c71e33          	mulh	t3,a4,t3
    5c5c:	005302b3          	add	t0,t1,t0
    5c60:	0062b333          	sltu	t1,t0,t1
    5c64:	01f2dd13          	srli	s10,t0,0x1f
    5c68:	00129293          	slli	t0,t0,0x1
    5c6c:	005a02b3          	add	t0,s4,t0
    5c70:	01d284b3          	add	s1,t0,t4
    5c74:	0142ba33          	sltu	s4,t0,s4
    5c78:	0054bf33          	sltu	t5,s1,t0
    5c7c:	01a4dc13          	srli	s8,s1,0x1a
    5c80:	03678bb3          	mul	s7,a5,s6
    5c84:	01cd8e33          	add	t3,s11,t3
    5c88:	01c30e33          	add	t3,t1,t3
    5c8c:	00c12303          	lw	t1,12(sp)
    5c90:	001e1e13          	slli	t3,t3,0x1
    5c94:	01cd6e33          	or	t3,s10,t3
    5c98:	01c30e33          	add	t3,t1,t3
    5c9c:	01ca0a33          	add	s4,s4,t3
    5ca0:	014f0f33          	add	t5,t5,s4
    5ca4:	006f1313          	slli	t1,t5,0x6
    5ca8:	02cf8433          	mul	s0,t6,a2
    5cac:	01836c33          	or	s8,t1,s8
    5cb0:	009974b3          	and	s1,s2,s1
    5cb4:	409284b3          	sub	s1,t0,s1
    5cb8:	41af5f13          	srai	t5,t5,0x1a
    5cbc:	010002b7          	lui	t0,0x1000
    5cc0:	01012d03          	lw	s10,16(sp)
    5cc4:	00952423          	sw	s1,8(a0)
    5cc8:	036797b3          	mulh	a5,a5,s6
    5ccc:	008b8433          	add	s0,s7,s0
    5cd0:	01743bb3          	sltu	s7,s0,s7
    5cd4:	02cf9633          	mulh	a2,t6,a2
    5cd8:	03180333          	mul	t1,a6,a7
    5cdc:	00c787b3          	add	a5,a5,a2
    5ce0:	00fb8bb3          	add	s7,s7,a5
    5ce4:	03181833          	mulh	a6,a6,a7
    5ce8:	00640333          	add	t1,s0,t1
    5cec:	00833433          	sltu	s0,t1,s0
    5cf0:	02d58633          	mul	a2,a1,a3
    5cf4:	010b8833          	add	a6,s7,a6
    5cf8:	01040433          	add	s0,s0,a6
    5cfc:	02d596b3          	mulh	a3,a1,a3
    5d00:	00c30633          	add	a2,t1,a2
    5d04:	01300593          	li	a1,19
    5d08:	00663333          	sltu	t1,a2,t1
    5d0c:	027707b3          	mul	a5,a4,t2
    5d10:	00d406b3          	add	a3,s0,a3
    5d14:	00d30333          	add	t1,t1,a3
    5d18:	08c12403          	lw	s0,140(sp)
    5d1c:	027713b3          	mulh	t2,a4,t2
    5d20:	00f607b3          	add	a5,a2,a5
    5d24:	00c7b6b3          	sltu	a3,a5,a2
    5d28:	01f7de13          	srli	t3,a5,0x1f
    5d2c:	00179793          	slli	a5,a5,0x1
    5d30:	00fc07b3          	add	a5,s8,a5
    5d34:	005789b3          	add	s3,a5,t0
    5d38:	0187bc33          	sltu	s8,a5,s8
    5d3c:	00f9b633          	sltu	a2,s3,a5
    5d40:	0199d713          	srli	a4,s3,0x19
    5d44:	039588b3          	mul	a7,a1,s9
    5d48:	007303b3          	add	t2,t1,t2
    5d4c:	007686b3          	add	a3,a3,t2
    5d50:	00169693          	slli	a3,a3,0x1
    5d54:	00de66b3          	or	a3,t3,a3
    5d58:	00df0f33          	add	t5,t5,a3
    5d5c:	01ec0f33          	add	t5,s8,t5
    5d60:	01e60f33          	add	t5,a2,t5
    5d64:	007f1693          	slli	a3,t5,0x7
    5d68:	00e6e733          	or	a4,a3,a4
    5d6c:	01a884b3          	add	s1,a7,s10
    5d70:	00058693          	mv	a3,a1
    5d74:	03558c33          	mul	s8,a1,s5
    5d78:	0114b5b3          	sltu	a1,s1,a7
    5d7c:	05412603          	lw	a2,84(sp)
    5d80:	04012d03          	lw	s10,64(sp)
    5d84:	419f5f13          	srai	t5,t5,0x19
    5d88:	00c70db3          	add	s11,a4,a2
    5d8c:	01dd8633          	add	a2,s11,t4
    5d90:	01af0f33          	add	t5,t5,s10
    5d94:	00edb733          	sltu	a4,s11,a4
    5d98:	01d48eb3          	add	t4,s1,t4
    5d9c:	0396b8b3          	mulhu	a7,a3,s9
    5da0:	01e70733          	add	a4,a4,t5
    5da4:	01b636b3          	sltu	a3,a2,s11
    5da8:	009eb833          	sltu	a6,t4,s1
    5dac:	00e68733          	add	a4,a3,a4
    5db0:	01aedf13          	srli	t5,t4,0x1a
    5db4:	01a65693          	srli	a3,a2,0x1a
    5db8:	01d97eb3          	and	t4,s2,t4
    5dbc:	00c97933          	and	s2,s2,a2
    5dc0:	02012603          	lw	a2,32(sp)
    5dc4:	011c0c33          	add	s8,s8,a7
    5dc8:	fe000337          	lui	t1,0xfe000
    5dcc:	00cc08b3          	add	a7,s8,a2
    5dd0:	00671713          	slli	a4,a4,0x6
    5dd4:	01337ab3          	and	s5,t1,s3
    5dd8:	011588b3          	add	a7,a1,a7
    5ddc:	41578ab3          	sub	s5,a5,s5
    5de0:	00d766b3          	or	a3,a4,a3
    5de4:	05812783          	lw	a5,88(sp)
    5de8:	02812703          	lw	a4,40(sp)
    5dec:	011808b3          	add	a7,a6,a7
    5df0:	00689893          	slli	a7,a7,0x6
    5df4:	01e8ef33          	or	t5,a7,t5
    5df8:	412d8933          	sub	s2,s11,s2
    5dfc:	41d484b3          	sub	s1,s1,t4
    5e00:	00f68db3          	add	s11,a3,a5
    5e04:	00ef0f33          	add	t5,t5,a4
    5e08:	01552623          	sw	s5,12(a0)
    5e0c:	01252823          	sw	s2,16(a0)
    5e10:	01b52a23          	sw	s11,20(a0)
    5e14:	00952023          	sw	s1,0(a0)
    5e18:	01e52223          	sw	t5,4(a0)
    5e1c:	08812483          	lw	s1,136(sp)
    5e20:	08412903          	lw	s2,132(sp)
    5e24:	08012983          	lw	s3,128(sp)
    5e28:	07c12a03          	lw	s4,124(sp)
    5e2c:	07812a83          	lw	s5,120(sp)
    5e30:	07412b03          	lw	s6,116(sp)
    5e34:	07012b83          	lw	s7,112(sp)
    5e38:	06c12c03          	lw	s8,108(sp)
    5e3c:	06812c83          	lw	s9,104(sp)
    5e40:	06412d03          	lw	s10,100(sp)
    5e44:	06012d83          	lw	s11,96(sp)
    5e48:	09010113          	addi	sp,sp,144
    5e4c:	00008067          	ret

00005e50 <fe_sub>:
    5e50:	fe010113          	addi	sp,sp,-32
    5e54:	01212a23          	sw	s2,20(sp)
    5e58:	01312823          	sw	s3,16(sp)
    5e5c:	01412623          	sw	s4,12(sp)
    5e60:	01512423          	sw	s5,8(sp)
    5e64:	01612223          	sw	s6,4(sp)
    5e68:	00862a03          	lw	s4,8(a2) # 1000008 <sha3+0xfe9fb0>
    5e6c:	0045ab03          	lw	s6,4(a1)
    5e70:	00c62983          	lw	s3,12(a2)
    5e74:	01062903          	lw	s2,16(a2)
    5e78:	00462a83          	lw	s5,4(a2)
    5e7c:	0085ae83          	lw	t4,8(a1)
    5e80:	00c5ae03          	lw	t3,12(a1)
    5e84:	0105a303          	lw	t1,16(a1)
    5e88:	0145a883          	lw	a7,20(a1)
    5e8c:	0185a803          	lw	a6,24(a1)
    5e90:	01c5a683          	lw	a3,28(a1)
    5e94:	0205a703          	lw	a4,32(a1)
    5e98:	0245a783          	lw	a5,36(a1)
    5e9c:	00062f03          	lw	t5,0(a2)
    5ea0:	0005a583          	lw	a1,0(a1)
    5ea4:	00912c23          	sw	s1,24(sp)
    5ea8:	01462483          	lw	s1,20(a2)
    5eac:	00812e23          	sw	s0,28(sp)
    5eb0:	01862403          	lw	s0,24(a2)
    5eb4:	01c62383          	lw	t2,28(a2)
    5eb8:	02062283          	lw	t0,32(a2)
    5ebc:	02462f83          	lw	t6,36(a2)
    5ec0:	414e8eb3          	sub	t4,t4,s4
    5ec4:	415b0633          	sub	a2,s6,s5
    5ec8:	413e0e33          	sub	t3,t3,s3
    5ecc:	41230333          	sub	t1,t1,s2
    5ed0:	41e585b3          	sub	a1,a1,t5
    5ed4:	409888b3          	sub	a7,a7,s1
    5ed8:	00b52023          	sw	a1,0(a0)
    5edc:	00c52223          	sw	a2,4(a0)
    5ee0:	01d52423          	sw	t4,8(a0)
    5ee4:	01c52623          	sw	t3,12(a0)
    5ee8:	00652823          	sw	t1,16(a0)
    5eec:	01152a23          	sw	a7,20(a0)
    5ef0:	40880833          	sub	a6,a6,s0
    5ef4:	01c12403          	lw	s0,28(sp)
    5ef8:	407686b3          	sub	a3,a3,t2
    5efc:	40570733          	sub	a4,a4,t0
    5f00:	41f787b3          	sub	a5,a5,t6
    5f04:	01052c23          	sw	a6,24(a0)
    5f08:	00d52e23          	sw	a3,28(a0)
    5f0c:	02e52023          	sw	a4,32(a0)
    5f10:	02f52223          	sw	a5,36(a0)
    5f14:	01812483          	lw	s1,24(sp)
    5f18:	01412903          	lw	s2,20(sp)
    5f1c:	01012983          	lw	s3,16(sp)
    5f20:	00c12a03          	lw	s4,12(sp)
    5f24:	00812a83          	lw	s5,8(sp)
    5f28:	00412b03          	lw	s6,4(sp)
    5f2c:	02010113          	addi	sp,sp,32
    5f30:	00008067          	ret

00005f34 <fe_tobytes>:
    5f34:	0245ae83          	lw	t4,36(a1)
    5f38:	0005af83          	lw	t6,0(a1)
    5f3c:	010007b7          	lui	a5,0x1000
    5f40:	002e9f13          	slli	t5,t4,0x2
    5f44:	01df0f33          	add	t5,t5,t4
    5f48:	002f1f13          	slli	t5,t5,0x2
    5f4c:	41df0f33          	sub	t5,t5,t4
    5f50:	00ff0f33          	add	t5,t5,a5
    5f54:	0045ae03          	lw	t3,4(a1)
    5f58:	419f5f13          	srai	t5,t5,0x19
    5f5c:	01ff0f33          	add	t5,t5,t6
    5f60:	0085a683          	lw	a3,8(a1)
    5f64:	41af5f13          	srai	t5,t5,0x1a
    5f68:	01cf0f33          	add	t5,t5,t3
    5f6c:	00c5a303          	lw	t1,12(a1)
    5f70:	419f5f13          	srai	t5,t5,0x19
    5f74:	00df0f33          	add	t5,t5,a3
    5f78:	0105a883          	lw	a7,16(a1)
    5f7c:	41af5f13          	srai	t5,t5,0x1a
    5f80:	006f0f33          	add	t5,t5,t1
    5f84:	0145a703          	lw	a4,20(a1)
    5f88:	419f5f13          	srai	t5,t5,0x19
    5f8c:	011f0f33          	add	t5,t5,a7
    5f90:	0185a803          	lw	a6,24(a1)
    5f94:	41af5f13          	srai	t5,t5,0x1a
    5f98:	00ef0f33          	add	t5,t5,a4
    5f9c:	01c5a283          	lw	t0,28(a1)
    5fa0:	419f5f13          	srai	t5,t5,0x19
    5fa4:	010f0f33          	add	t5,t5,a6
    5fa8:	0205a603          	lw	a2,32(a1)
    5fac:	41af5f13          	srai	t5,t5,0x1a
    5fb0:	005f0f33          	add	t5,t5,t0
    5fb4:	419f5f13          	srai	t5,t5,0x19
    5fb8:	00cf0f33          	add	t5,t5,a2
    5fbc:	41af5f13          	srai	t5,t5,0x1a
    5fc0:	01df0f33          	add	t5,t5,t4
    5fc4:	419f5f13          	srai	t5,t5,0x19
    5fc8:	002f1793          	slli	a5,t5,0x2
    5fcc:	01e787b3          	add	a5,a5,t5
    5fd0:	00279793          	slli	a5,a5,0x2
    5fd4:	41e787b3          	sub	a5,a5,t5
    5fd8:	01f78fb3          	add	t6,a5,t6
    5fdc:	41afd793          	srai	a5,t6,0x1a
    5fe0:	01c78e33          	add	t3,a5,t3
    5fe4:	419e5793          	srai	a5,t3,0x19
    5fe8:	00d786b3          	add	a3,a5,a3
    5fec:	41a6d793          	srai	a5,a3,0x1a
    5ff0:	00678333          	add	t1,a5,t1
    5ff4:	41935793          	srai	a5,t1,0x19
    5ff8:	011788b3          	add	a7,a5,a7
    5ffc:	41a8d793          	srai	a5,a7,0x1a
    6000:	00e78733          	add	a4,a5,a4
    6004:	41975793          	srai	a5,a4,0x19
    6008:	01078833          	add	a6,a5,a6
    600c:	41a85593          	srai	a1,a6,0x1a
    6010:	005585b3          	add	a1,a1,t0
    6014:	4195d793          	srai	a5,a1,0x19
    6018:	fa010113          	addi	sp,sp,-96
    601c:	00c78633          	add	a2,a5,a2
    6020:	05412623          	sw	s4,76(sp)
    6024:	41a65f13          	srai	t5,a2,0x1a
    6028:	08000a37          	lui	s4,0x8000
    602c:	04812e23          	sw	s0,92(sp)
    6030:	01df0eb3          	add	t4,t5,t4
    6034:	ffca0413          	addi	s0,s4,-4 # 7fffffc <sha3+0x7fe9fa4>
    6038:	00181f13          	slli	t5,a6,0x1
    603c:	ffea0a13          	addi	s4,s4,-2
    6040:	040007b7          	lui	a5,0x4000
    6044:	014f7f33          	and	t5,t5,s4
    6048:	fff78793          	addi	a5,a5,-1 # 3ffffff <sha3+0x3fe9fa7>
    604c:	00fff7b3          	and	a5,t6,a5
    6050:	01e12c23          	sw	t5,24(sp)
    6054:	02000fb7          	lui	t6,0x2000
    6058:	41465f13          	srai	t5,a2,0x14
    605c:	03e12223          	sw	t5,36(sp)
    6060:	ffff8f93          	addi	t6,t6,-1 # 1ffffff <sha3+0x1fe9fa7>
    6064:	4087df13          	srai	t5,a5,0x8
    6068:	01f77733          	and	a4,a4,t6
    606c:	01e12423          	sw	t5,8(sp)
    6070:	4107df13          	srai	t5,a5,0x10
    6074:	01e12623          	sw	t5,12(sp)
    6078:	40875f13          	srai	t5,a4,0x8
    607c:	01e12823          	sw	t5,16(sp)
    6080:	41075f13          	srai	t5,a4,0x10
    6084:	01e12a23          	sw	t5,20(sp)
    6088:	01812f03          	lw	t5,24(sp)
    608c:	03812e23          	sw	s8,60(sp)
    6090:	41875c13          	srai	s8,a4,0x18
    6094:	05312823          	sw	s3,80(sp)
    6098:	018f6f33          	or	t5,t5,s8
    609c:	400009b7          	lui	s3,0x40000
    60a0:	05512423          	sw	s5,72(sp)
    60a4:	01e12c23          	sw	t5,24(sp)
    60a8:	fe098a93          	addi	s5,s3,-32 # 3fffffe0 <sha3+0x3ffe9f88>
    60ac:	00461f13          	slli	t5,a2,0x4
    60b0:	ff098993          	addi	s3,s3,-16
    60b4:	013f79b3          	and	s3,t5,s3
    60b8:	00661f13          	slli	t5,a2,0x6
    60bc:	04912c23          	sw	s1,88(sp)
    60c0:	05212a23          	sw	s2,84(sp)
    60c4:	05612223          	sw	s6,68(sp)
    60c8:	05712023          	sw	s7,64(sp)
    60cc:	03912c23          	sw	s9,56(sp)
    60d0:	03a12a23          	sw	s10,52(sp)
    60d4:	03b12823          	sw	s11,48(sp)
    60d8:	01e12e23          	sw	t5,28(sp)
    60dc:	03e12023          	sw	t5,32(sp)
    60e0:	02412f03          	lw	t5,36(sp)
    60e4:	4187dd93          	srai	s11,a5,0x18
    60e8:	00f50023          	sb	a5,0(a0)
    60ec:	00814783          	lbu	a5,8(sp)
    60f0:	03ff7613          	andi	a2,t5,63
    60f4:	02c12223          	sw	a2,36(sp)
    60f8:	00f500a3          	sb	a5,1(a0)
    60fc:	00e50823          	sb	a4,16(a0)
    6100:	00c14783          	lbu	a5,12(sp)
    6104:	01014703          	lbu	a4,16(sp)
    6108:	80000637          	lui	a2,0x80000
    610c:	006e9f13          	slli	t5,t4,0x6
    6110:	002e1913          	slli	s2,t3,0x2
    6114:	fc064613          	xori	a2,a2,-64
    6118:	00897933          	and	s2,s2,s0
    611c:	00cf7633          	and	a2,t5,a2
    6120:	20000437          	lui	s0,0x20000
    6124:	007e9f13          	slli	t5,t4,0x7
    6128:	00369b13          	slli	s6,a3,0x3
    612c:	03e12423          	sw	t5,40(sp)
    6130:	03e12623          	sw	t5,44(sp)
    6134:	416e5493          	srai	s1,t3,0x16
    6138:	01c12f03          	lw	t5,28(sp)
    613c:	4156d393          	srai	t2,a3,0x15
    6140:	00531293          	slli	t0,t1,0x5
    6144:	41335f93          	srai	t6,t1,0x13
    6148:	00669d13          	slli	s10,a3,0x6
    614c:	00f50123          	sb	a5,2(a0)
    6150:	00e508a3          	sb	a4,17(a0)
    6154:	01814783          	lbu	a5,24(sp)
    6158:	01414703          	lbu	a4,20(sp)
    615c:	ff840413          	addi	s0,s0,-8 # 1ffffff8 <sha3+0x1ffe9fa0>
    6160:	00689c93          	slli	s9,a7,0x6
    6164:	0074f493          	andi	s1,s1,7
    6168:	008b7433          	and	s0,s6,s0
    616c:	000d0693          	mv	a3,s10
    6170:	01f3f393          	andi	t2,t2,31
    6174:	0152f2b3          	and	t0,t0,s5
    6178:	00681b93          	slli	s7,a6,0x6
    617c:	03ffff93          	andi	t6,t6,63
    6180:	41785b13          	srai	s6,a6,0x17
    6184:	01b96933          	or	s2,s2,s11
    6188:	0084e433          	or	s0,s1,s0
    618c:	406e5d93          	srai	s11,t3,0x6
    6190:	4028d493          	srai	s1,a7,0x2
    6194:	00bd5d13          	srli	s10,s10,0xb
    6198:	0136d693          	srli	a3,a3,0x13
    619c:	0053e2b3          	or	t0,t2,t0
    61a0:	019fefb3          	or	t6,t6,s9
    61a4:	40335393          	srai	t2,t1,0x3
    61a8:	40a8dc93          	srai	s9,a7,0xa
    61ac:	00dbdb93          	srli	s7,s7,0xd
    61b0:	4128d893          	srai	a7,a7,0x12
    61b4:	40f85813          	srai	a6,a6,0xf
    61b8:	40ee5e13          	srai	t3,t3,0xe
    61bc:	40b35313          	srai	t1,t1,0xb
    61c0:	007b7c13          	andi	s8,s6,7
    61c4:	012501a3          	sb	s2,3(a0)
    61c8:	01b50223          	sb	s11,4(a0)
    61cc:	00850323          	sb	s0,6(a0)
    61d0:	01a503a3          	sb	s10,7(a0)
    61d4:	00d50423          	sb	a3,8(a0)
    61d8:	009506a3          	sb	s1,13(a0)
    61dc:	01950723          	sb	s9,14(a0)
    61e0:	011507a3          	sb	a7,15(a0)
    61e4:	00e50923          	sb	a4,18(a0)
    61e8:	01750a23          	sb	s7,20(a0)
    61ec:	01050aa3          	sb	a6,21(a0)
    61f0:	012f5693          	srli	a3,t5,0x12
    61f4:	00af5813          	srli	a6,t5,0xa
    61f8:	10000b37          	lui	s6,0x10000
    61fc:	01c502a3          	sb	t3,5(a0)
    6200:	005504a3          	sb	t0,9(a0)
    6204:	00750523          	sb	t2,10(a0)
    6208:	006505a3          	sb	t1,11(a0)
    620c:	01f50623          	sb	t6,12(a0)
    6210:	00f509a3          	sb	a5,19(a0)
    6214:	02412783          	lw	a5,36(sp)
    6218:	02812f03          	lw	t5,40(sp)
    621c:	00359a93          	slli	s5,a1,0x3
    6220:	4155da13          	srai	s4,a1,0x15
    6224:	ff8b0b13          	addi	s6,s6,-8 # ffffff8 <sha3+0xffe9fa0>
    6228:	016afab3          	and	s5,s5,s6
    622c:	00fa7a13          	andi	s4,s4,15
    6230:	00759b13          	slli	s6,a1,0x7
    6234:	05c12403          	lw	s0,92(sp)
    6238:	412ede93          	srai	t4,t4,0x12
    623c:	015c6ab3          	or	s5,s8,s5
    6240:	013a69b3          	or	s3,s4,s3
    6244:	00cb5893          	srli	a7,s6,0xc
    6248:	014b5593          	srli	a1,s6,0x14
    624c:	00c7e633          	or	a2,a5,a2
    6250:	009f5713          	srli	a4,t5,0x9
    6254:	011f5793          	srli	a5,t5,0x11
    6258:	07fefe93          	andi	t4,t4,127
    625c:	01550b23          	sb	s5,22(a0)
    6260:	01350ca3          	sb	s3,25(a0)
    6264:	01150ba3          	sb	a7,23(a0)
    6268:	00b50c23          	sb	a1,24(a0)
    626c:	01050d23          	sb	a6,26(a0)
    6270:	00d50da3          	sb	a3,27(a0)
    6274:	00c50e23          	sb	a2,28(a0)
    6278:	00e50ea3          	sb	a4,29(a0)
    627c:	00f50f23          	sb	a5,30(a0)
    6280:	01d50fa3          	sb	t4,31(a0)
    6284:	05812483          	lw	s1,88(sp)
    6288:	05412903          	lw	s2,84(sp)
    628c:	05012983          	lw	s3,80(sp)
    6290:	04c12a03          	lw	s4,76(sp)
    6294:	04812a83          	lw	s5,72(sp)
    6298:	04412b03          	lw	s6,68(sp)
    629c:	04012b83          	lw	s7,64(sp)
    62a0:	03c12c03          	lw	s8,60(sp)
    62a4:	03812c83          	lw	s9,56(sp)
    62a8:	03412d03          	lw	s10,52(sp)
    62ac:	03012d83          	lw	s11,48(sp)
    62b0:	06010113          	addi	sp,sp,96
    62b4:	00008067          	ret

000062b8 <fe_isnegative>:
    62b8:	fd010113          	addi	sp,sp,-48
    62bc:	00050593          	mv	a1,a0
    62c0:	00010513          	mv	a0,sp
    62c4:	02112623          	sw	ra,44(sp)
    62c8:	c6dff0ef          	jal	ra,5f34 <fe_tobytes>
    62cc:	00014503          	lbu	a0,0(sp)
    62d0:	02c12083          	lw	ra,44(sp)
    62d4:	00157513          	andi	a0,a0,1
    62d8:	03010113          	addi	sp,sp,48
    62dc:	00008067          	ret

000062e0 <fe_isnonzero>:
    62e0:	fd010113          	addi	sp,sp,-48
    62e4:	00050593          	mv	a1,a0
    62e8:	00010513          	mv	a0,sp
    62ec:	02112623          	sw	ra,44(sp)
    62f0:	c45ff0ef          	jal	ra,5f34 <fe_tobytes>
    62f4:	00114783          	lbu	a5,1(sp)
    62f8:	00014503          	lbu	a0,0(sp)
    62fc:	00214683          	lbu	a3,2(sp)
    6300:	00314703          	lbu	a4,3(sp)
    6304:	00f56533          	or	a0,a0,a5
    6308:	00414783          	lbu	a5,4(sp)
    630c:	00d56533          	or	a0,a0,a3
    6310:	00514683          	lbu	a3,5(sp)
    6314:	00e56533          	or	a0,a0,a4
    6318:	00614703          	lbu	a4,6(sp)
    631c:	00f56533          	or	a0,a0,a5
    6320:	00714783          	lbu	a5,7(sp)
    6324:	00d56533          	or	a0,a0,a3
    6328:	00814683          	lbu	a3,8(sp)
    632c:	00e56533          	or	a0,a0,a4
    6330:	00914703          	lbu	a4,9(sp)
    6334:	00f56533          	or	a0,a0,a5
    6338:	00a14783          	lbu	a5,10(sp)
    633c:	00d56533          	or	a0,a0,a3
    6340:	00b14683          	lbu	a3,11(sp)
    6344:	00e56533          	or	a0,a0,a4
    6348:	00c14703          	lbu	a4,12(sp)
    634c:	00f56533          	or	a0,a0,a5
    6350:	00d14783          	lbu	a5,13(sp)
    6354:	00d56533          	or	a0,a0,a3
    6358:	00e14683          	lbu	a3,14(sp)
    635c:	00e56533          	or	a0,a0,a4
    6360:	00f14703          	lbu	a4,15(sp)
    6364:	00f56533          	or	a0,a0,a5
    6368:	01014783          	lbu	a5,16(sp)
    636c:	00d56533          	or	a0,a0,a3
    6370:	01114683          	lbu	a3,17(sp)
    6374:	00e56533          	or	a0,a0,a4
    6378:	01214703          	lbu	a4,18(sp)
    637c:	00f56533          	or	a0,a0,a5
    6380:	01314783          	lbu	a5,19(sp)
    6384:	00d56533          	or	a0,a0,a3
    6388:	01414683          	lbu	a3,20(sp)
    638c:	00e56533          	or	a0,a0,a4
    6390:	01514703          	lbu	a4,21(sp)
    6394:	00f56533          	or	a0,a0,a5
    6398:	01614783          	lbu	a5,22(sp)
    639c:	00d56533          	or	a0,a0,a3
    63a0:	01714683          	lbu	a3,23(sp)
    63a4:	00e56533          	or	a0,a0,a4
    63a8:	01814703          	lbu	a4,24(sp)
    63ac:	00f56533          	or	a0,a0,a5
    63b0:	01914783          	lbu	a5,25(sp)
    63b4:	00d56533          	or	a0,a0,a3
    63b8:	01a14683          	lbu	a3,26(sp)
    63bc:	00e56533          	or	a0,a0,a4
    63c0:	01b14703          	lbu	a4,27(sp)
    63c4:	00f56533          	or	a0,a0,a5
    63c8:	01c14783          	lbu	a5,28(sp)
    63cc:	00d56533          	or	a0,a0,a3
    63d0:	01d14683          	lbu	a3,29(sp)
    63d4:	00e56533          	or	a0,a0,a4
    63d8:	01e14703          	lbu	a4,30(sp)
    63dc:	00f56533          	or	a0,a0,a5
    63e0:	01f14783          	lbu	a5,31(sp)
    63e4:	00d56533          	or	a0,a0,a3
    63e8:	02c12083          	lw	ra,44(sp)
    63ec:	00e56533          	or	a0,a0,a4
    63f0:	00f56533          	or	a0,a0,a5
    63f4:	00a03533          	snez	a0,a0
    63f8:	03010113          	addi	sp,sp,48
    63fc:	00008067          	ret

00006400 <slide>:
    6400:	00050693          	mv	a3,a0
    6404:	00000713          	li	a4,0
    6408:	10000813          	li	a6,256
    640c:	40375793          	srai	a5,a4,0x3
    6410:	00f587b3          	add	a5,a1,a5
    6414:	0007c783          	lbu	a5,0(a5)
    6418:	00777613          	andi	a2,a4,7
    641c:	00170713          	addi	a4,a4,1
    6420:	40c7d7b3          	sra	a5,a5,a2
    6424:	0017f793          	andi	a5,a5,1
    6428:	00f68023          	sb	a5,0(a3) # fe000000 <sanctum_sm_signature+0x7de00ee0>
    642c:	00168693          	addi	a3,a3,1
    6430:	fd071ee3          	bne	a4,a6,640c <slide+0xc>
    6434:	00050693          	mv	a3,a0
    6438:	00100893          	li	a7,1
    643c:	10050513          	addi	a0,a0,256
    6440:	40d888b3          	sub	a7,a7,a3
    6444:	0ff00313          	li	t1,255
    6448:	00f00e93          	li	t4,15
    644c:	ff100f13          	li	t5,-15
    6450:	00100f93          	li	t6,1
    6454:	00700e13          	li	t3,7
    6458:	00c0006f          	j	6464 <slide+0x64>
    645c:	00168693          	addi	a3,a3,1
    6460:	04a68863          	beq	a3,a0,64b0 <slide+0xb0>
    6464:	00068783          	lb	a5,0(a3)
    6468:	fe078ae3          	beqz	a5,645c <slide+0x5c>
    646c:	00068713          	mv	a4,a3
    6470:	00100613          	li	a2,1
    6474:	00e887b3          	add	a5,a7,a4
    6478:	fef342e3          	blt	t1,a5,645c <slide+0x5c>
    647c:	00170783          	lb	a5,1(a4)
    6480:	00078e63          	beqz	a5,649c <slide+0x9c>
    6484:	00068583          	lb	a1,0(a3)
    6488:	00c797b3          	sll	a5,a5,a2
    648c:	00f58833          	add	a6,a1,a5
    6490:	030ec263          	blt	t4,a6,64b4 <slide+0xb4>
    6494:	01068023          	sb	a6,0(a3)
    6498:	000700a3          	sb	zero,1(a4)
    649c:	00160613          	addi	a2,a2,1 # 80000001 <sanctum_sm_signature+0xffe00ee1>
    64a0:	00170713          	addi	a4,a4,1
    64a4:	fdc618e3          	bne	a2,t3,6474 <slide+0x74>
    64a8:	00168693          	addi	a3,a3,1
    64ac:	faa69ce3          	bne	a3,a0,6464 <slide+0x64>
    64b0:	00008067          	ret
    64b4:	40f587b3          	sub	a5,a1,a5
    64b8:	fbe7c2e3          	blt	a5,t5,645c <slide+0x5c>
    64bc:	00f68023          	sb	a5,0(a3)
    64c0:	00d607b3          	add	a5,a2,a3
    64c4:	0100006f          	j	64d4 <slide+0xd4>
    64c8:	00078023          	sb	zero,0(a5)
    64cc:	00178793          	addi	a5,a5,1
    64d0:	fca786e3          	beq	a5,a0,649c <slide+0x9c>
    64d4:	00078583          	lb	a1,0(a5)
    64d8:	fe0598e3          	bnez	a1,64c8 <slide+0xc8>
    64dc:	01f78023          	sb	t6,0(a5)
    64e0:	fbdff06f          	j	649c <slide+0x9c>

000064e4 <cmov>:
    64e4:	ff010113          	addi	sp,sp,-16
    64e8:	00112623          	sw	ra,12(sp)
    64ec:	00812423          	sw	s0,8(sp)
    64f0:	00912223          	sw	s1,4(sp)
    64f4:	01212023          	sw	s2,0(sp)
    64f8:	00050413          	mv	s0,a0
    64fc:	00060913          	mv	s2,a2
    6500:	00058493          	mv	s1,a1
    6504:	ff1fb0ef          	jal	ra,24f4 <fe_cmov>
    6508:	00090613          	mv	a2,s2
    650c:	02848593          	addi	a1,s1,40 # fe000028 <sanctum_sm_signature+0x7de00f08>
    6510:	02840513          	addi	a0,s0,40
    6514:	fe1fb0ef          	jal	ra,24f4 <fe_cmov>
    6518:	05040513          	addi	a0,s0,80
    651c:	00812403          	lw	s0,8(sp)
    6520:	00c12083          	lw	ra,12(sp)
    6524:	00090613          	mv	a2,s2
    6528:	05048593          	addi	a1,s1,80
    652c:	00012903          	lw	s2,0(sp)
    6530:	00412483          	lw	s1,4(sp)
    6534:	01010113          	addi	sp,sp,16
    6538:	fbdfb06f          	j	24f4 <fe_cmov>

0000653c <select>:
    653c:	f6010113          	addi	sp,sp,-160
    6540:	09412423          	sw	s4,136(sp)
    6544:	01f65a13          	srli	s4,a2,0x1f
    6548:	08812c23          	sw	s0,152(sp)
    654c:	41400433          	neg	s0,s4
    6550:	00867433          	and	s0,a2,s0
    6554:	00141413          	slli	s0,s0,0x1
    6558:	40860633          	sub	a2,a2,s0
    655c:	08112e23          	sw	ra,156(sp)
    6560:	08912a23          	sw	s1,148(sp)
    6564:	09212823          	sw	s2,144(sp)
    6568:	09312623          	sw	s3,140(sp)
    656c:	00050913          	mv	s2,a0
    6570:	09512223          	sw	s5,132(sp)
    6574:	09612023          	sw	s6,128(sp)
    6578:	0ff67413          	andi	s0,a2,255
    657c:	00058993          	mv	s3,a1
    6580:	02850b13          	addi	s6,a0,40
    6584:	e5dfb0ef          	jal	ra,23e0 <fe_1>
    6588:	000b0513          	mv	a0,s6
    658c:	e55fb0ef          	jal	ra,23e0 <fe_1>
    6590:	05090a93          	addi	s5,s2,80 # fc000050 <sanctum_sm_signature+0x7be00f30>
    6594:	000a8513          	mv	a0,s5
    6598:	00499493          	slli	s1,s3,0x4
    659c:	e19fb0ef          	jal	ra,23b4 <fe_0>
    65a0:	413484b3          	sub	s1,s1,s3
    65a4:	00649493          	slli	s1,s1,0x6
    65a8:	00001997          	auipc	s3,0x1
    65ac:	52c98993          	addi	s3,s3,1324 # 7ad4 <base>
    65b0:	00144613          	xori	a2,s0,1
    65b4:	009985b3          	add	a1,s3,s1
    65b8:	00090513          	mv	a0,s2
    65bc:	00163613          	seqz	a2,a2
    65c0:	f25ff0ef          	jal	ra,64e4 <cmov>
    65c4:	00244613          	xori	a2,s0,2
    65c8:	07848593          	addi	a1,s1,120
    65cc:	00b985b3          	add	a1,s3,a1
    65d0:	00090513          	mv	a0,s2
    65d4:	00163613          	seqz	a2,a2
    65d8:	f0dff0ef          	jal	ra,64e4 <cmov>
    65dc:	00344613          	xori	a2,s0,3
    65e0:	0f048593          	addi	a1,s1,240
    65e4:	00b985b3          	add	a1,s3,a1
    65e8:	00090513          	mv	a0,s2
    65ec:	00163613          	seqz	a2,a2
    65f0:	ef5ff0ef          	jal	ra,64e4 <cmov>
    65f4:	00444613          	xori	a2,s0,4
    65f8:	16848593          	addi	a1,s1,360
    65fc:	00b985b3          	add	a1,s3,a1
    6600:	00090513          	mv	a0,s2
    6604:	00163613          	seqz	a2,a2
    6608:	eddff0ef          	jal	ra,64e4 <cmov>
    660c:	00544613          	xori	a2,s0,5
    6610:	1e048593          	addi	a1,s1,480
    6614:	00b985b3          	add	a1,s3,a1
    6618:	00090513          	mv	a0,s2
    661c:	00163613          	seqz	a2,a2
    6620:	ec5ff0ef          	jal	ra,64e4 <cmov>
    6624:	00644613          	xori	a2,s0,6
    6628:	25848593          	addi	a1,s1,600
    662c:	00b985b3          	add	a1,s3,a1
    6630:	00090513          	mv	a0,s2
    6634:	00163613          	seqz	a2,a2
    6638:	eadff0ef          	jal	ra,64e4 <cmov>
    663c:	00744613          	xori	a2,s0,7
    6640:	2d048593          	addi	a1,s1,720
    6644:	00b985b3          	add	a1,s3,a1
    6648:	00090513          	mv	a0,s2
    664c:	00163613          	seqz	a2,a2
    6650:	e95ff0ef          	jal	ra,64e4 <cmov>
    6654:	00844613          	xori	a2,s0,8
    6658:	34848593          	addi	a1,s1,840
    665c:	00163613          	seqz	a2,a2
    6660:	00b985b3          	add	a1,s3,a1
    6664:	00090513          	mv	a0,s2
    6668:	e7dff0ef          	jal	ra,64e4 <cmov>
    666c:	00810413          	addi	s0,sp,8
    6670:	00040513          	mv	a0,s0
    6674:	000b0593          	mv	a1,s6
    6678:	984fc0ef          	jal	ra,27fc <fe_copy>
    667c:	00090593          	mv	a1,s2
    6680:	03010513          	addi	a0,sp,48
    6684:	978fc0ef          	jal	ra,27fc <fe_copy>
    6688:	000a8593          	mv	a1,s5
    668c:	05810513          	addi	a0,sp,88
    6690:	a35fd0ef          	jal	ra,40c4 <fe_neg>
    6694:	000a0613          	mv	a2,s4
    6698:	00040593          	mv	a1,s0
    669c:	00090513          	mv	a0,s2
    66a0:	e45ff0ef          	jal	ra,64e4 <cmov>
    66a4:	09c12083          	lw	ra,156(sp)
    66a8:	09812403          	lw	s0,152(sp)
    66ac:	09412483          	lw	s1,148(sp)
    66b0:	09012903          	lw	s2,144(sp)
    66b4:	08c12983          	lw	s3,140(sp)
    66b8:	08812a03          	lw	s4,136(sp)
    66bc:	08412a83          	lw	s5,132(sp)
    66c0:	08012b03          	lw	s6,128(sp)
    66c4:	0a010113          	addi	sp,sp,160
    66c8:	00008067          	ret

000066cc <ge_add>:
    66cc:	fb010113          	addi	sp,sp,-80
    66d0:	04912223          	sw	s1,68(sp)
    66d4:	03312e23          	sw	s3,60(sp)
    66d8:	00058493          	mv	s1,a1
    66dc:	02858993          	addi	s3,a1,40
    66e0:	03412c23          	sw	s4,56(sp)
    66e4:	00098593          	mv	a1,s3
    66e8:	00060a13          	mv	s4,a2
    66ec:	00048613          	mv	a2,s1
    66f0:	04112623          	sw	ra,76(sp)
    66f4:	04812423          	sw	s0,72(sp)
    66f8:	05212023          	sw	s2,64(sp)
    66fc:	03512a23          	sw	s5,52(sp)
    6700:	00050413          	mv	s0,a0
    6704:	02850913          	addi	s2,a0,40
    6708:	d09fb0ef          	jal	ra,2410 <fe_add>
    670c:	00048613          	mv	a2,s1
    6710:	00098593          	mv	a1,s3
    6714:	00090513          	mv	a0,s2
    6718:	f38ff0ef          	jal	ra,5e50 <fe_sub>
    671c:	05040993          	addi	s3,s0,80
    6720:	000a0613          	mv	a2,s4
    6724:	00040593          	mv	a1,s0
    6728:	00098513          	mv	a0,s3
    672c:	d7cfc0ef          	jal	ra,2ca8 <fe_mul>
    6730:	028a0613          	addi	a2,s4,40
    6734:	00090593          	mv	a1,s2
    6738:	00090513          	mv	a0,s2
    673c:	d6cfc0ef          	jal	ra,2ca8 <fe_mul>
    6740:	07840a93          	addi	s5,s0,120
    6744:	07848613          	addi	a2,s1,120
    6748:	078a0593          	addi	a1,s4,120
    674c:	000a8513          	mv	a0,s5
    6750:	d58fc0ef          	jal	ra,2ca8 <fe_mul>
    6754:	050a0613          	addi	a2,s4,80
    6758:	05048593          	addi	a1,s1,80
    675c:	00040513          	mv	a0,s0
    6760:	d48fc0ef          	jal	ra,2ca8 <fe_mul>
    6764:	00810493          	addi	s1,sp,8
    6768:	00040613          	mv	a2,s0
    676c:	00040593          	mv	a1,s0
    6770:	00048513          	mv	a0,s1
    6774:	c9dfb0ef          	jal	ra,2410 <fe_add>
    6778:	00090613          	mv	a2,s2
    677c:	00098593          	mv	a1,s3
    6780:	00040513          	mv	a0,s0
    6784:	eccff0ef          	jal	ra,5e50 <fe_sub>
    6788:	00090613          	mv	a2,s2
    678c:	00098593          	mv	a1,s3
    6790:	00090513          	mv	a0,s2
    6794:	c7dfb0ef          	jal	ra,2410 <fe_add>
    6798:	000a8613          	mv	a2,s5
    679c:	00048593          	mv	a1,s1
    67a0:	00098513          	mv	a0,s3
    67a4:	c6dfb0ef          	jal	ra,2410 <fe_add>
    67a8:	000a8613          	mv	a2,s5
    67ac:	00048593          	mv	a1,s1
    67b0:	000a8513          	mv	a0,s5
    67b4:	e9cff0ef          	jal	ra,5e50 <fe_sub>
    67b8:	04c12083          	lw	ra,76(sp)
    67bc:	04812403          	lw	s0,72(sp)
    67c0:	04412483          	lw	s1,68(sp)
    67c4:	04012903          	lw	s2,64(sp)
    67c8:	03c12983          	lw	s3,60(sp)
    67cc:	03812a03          	lw	s4,56(sp)
    67d0:	03412a83          	lw	s5,52(sp)
    67d4:	05010113          	addi	sp,sp,80
    67d8:	00008067          	ret

000067dc <ge_frombytes_negate_vartime>:
    67dc:	f1010113          	addi	sp,sp,-240
    67e0:	0d412c23          	sw	s4,216(sp)
    67e4:	02850a13          	addi	s4,a0,40
    67e8:	0e812423          	sw	s0,232(sp)
    67ec:	00050413          	mv	s0,a0
    67f0:	000a0513          	mv	a0,s4
    67f4:	0e112623          	sw	ra,236(sp)
    67f8:	0e912223          	sw	s1,228(sp)
    67fc:	0f212023          	sw	s2,224(sp)
    6800:	0d312e23          	sw	s3,220(sp)
    6804:	0d512a23          	sw	s5,212(sp)
    6808:	05040993          	addi	s3,s0,80
    680c:	00058a93          	mv	s5,a1
    6810:	840fc0ef          	jal	ra,2850 <fe_frombytes>
    6814:	00098513          	mv	a0,s3
    6818:	00810913          	addi	s2,sp,8
    681c:	bc5fb0ef          	jal	ra,23e0 <fe_1>
    6820:	000a0593          	mv	a1,s4
    6824:	00090513          	mv	a0,s2
    6828:	03010493          	addi	s1,sp,48
    682c:	915fd0ef          	jal	ra,4140 <fe_sq>
    6830:	00048513          	mv	a0,s1
    6834:	00001617          	auipc	a2,0x1
    6838:	e6860613          	addi	a2,a2,-408 # 769c <d>
    683c:	00090593          	mv	a1,s2
    6840:	c68fc0ef          	jal	ra,2ca8 <fe_mul>
    6844:	00098613          	mv	a2,s3
    6848:	00090593          	mv	a1,s2
    684c:	00090513          	mv	a0,s2
    6850:	e00ff0ef          	jal	ra,5e50 <fe_sub>
    6854:	00098613          	mv	a2,s3
    6858:	00048593          	mv	a1,s1
    685c:	00048513          	mv	a0,s1
    6860:	05810993          	addi	s3,sp,88
    6864:	badfb0ef          	jal	ra,2410 <fe_add>
    6868:	00048593          	mv	a1,s1
    686c:	00098513          	mv	a0,s3
    6870:	8d1fd0ef          	jal	ra,4140 <fe_sq>
    6874:	00048613          	mv	a2,s1
    6878:	00098593          	mv	a1,s3
    687c:	00098513          	mv	a0,s3
    6880:	c28fc0ef          	jal	ra,2ca8 <fe_mul>
    6884:	00098593          	mv	a1,s3
    6888:	00040513          	mv	a0,s0
    688c:	8b5fd0ef          	jal	ra,4140 <fe_sq>
    6890:	00048613          	mv	a2,s1
    6894:	00040593          	mv	a1,s0
    6898:	00040513          	mv	a0,s0
    689c:	c0cfc0ef          	jal	ra,2ca8 <fe_mul>
    68a0:	00090613          	mv	a2,s2
    68a4:	00040593          	mv	a1,s0
    68a8:	00040513          	mv	a0,s0
    68ac:	bfcfc0ef          	jal	ra,2ca8 <fe_mul>
    68b0:	00040593          	mv	a1,s0
    68b4:	00040513          	mv	a0,s0
    68b8:	e70fe0ef          	jal	ra,4f28 <fe_pow22523>
    68bc:	00098613          	mv	a2,s3
    68c0:	00040593          	mv	a1,s0
    68c4:	00040513          	mv	a0,s0
    68c8:	be0fc0ef          	jal	ra,2ca8 <fe_mul>
    68cc:	00090613          	mv	a2,s2
    68d0:	00040593          	mv	a1,s0
    68d4:	00040513          	mv	a0,s0
    68d8:	bd0fc0ef          	jal	ra,2ca8 <fe_mul>
    68dc:	08010993          	addi	s3,sp,128
    68e0:	00040593          	mv	a1,s0
    68e4:	00098513          	mv	a0,s3
    68e8:	859fd0ef          	jal	ra,4140 <fe_sq>
    68ec:	00048613          	mv	a2,s1
    68f0:	00098593          	mv	a1,s3
    68f4:	00098513          	mv	a0,s3
    68f8:	bb0fc0ef          	jal	ra,2ca8 <fe_mul>
    68fc:	0a810493          	addi	s1,sp,168
    6900:	00048513          	mv	a0,s1
    6904:	00090613          	mv	a2,s2
    6908:	00098593          	mv	a1,s3
    690c:	d44ff0ef          	jal	ra,5e50 <fe_sub>
    6910:	00048513          	mv	a0,s1
    6914:	9cdff0ef          	jal	ra,62e0 <fe_isnonzero>
    6918:	02050a63          	beqz	a0,694c <ge_frombytes_negate_vartime+0x170>
    691c:	00048513          	mv	a0,s1
    6920:	00090613          	mv	a2,s2
    6924:	00098593          	mv	a1,s3
    6928:	ae9fb0ef          	jal	ra,2410 <fe_add>
    692c:	00048513          	mv	a0,s1
    6930:	9b1ff0ef          	jal	ra,62e0 <fe_isnonzero>
    6934:	06051a63          	bnez	a0,69a8 <ge_frombytes_negate_vartime+0x1cc>
    6938:	00001617          	auipc	a2,0x1
    693c:	d8c60613          	addi	a2,a2,-628 # 76c4 <sqrtm1>
    6940:	00040593          	mv	a1,s0
    6944:	00040513          	mv	a0,s0
    6948:	b60fc0ef          	jal	ra,2ca8 <fe_mul>
    694c:	00040513          	mv	a0,s0
    6950:	969ff0ef          	jal	ra,62b8 <fe_isnegative>
    6954:	01fac783          	lbu	a5,31(s5) # fe00001f <sanctum_sm_signature+0x7de00eff>
    6958:	0077d793          	srli	a5,a5,0x7
    695c:	02f50e63          	beq	a0,a5,6998 <ge_frombytes_negate_vartime+0x1bc>
    6960:	07840513          	addi	a0,s0,120
    6964:	000a0613          	mv	a2,s4
    6968:	00040593          	mv	a1,s0
    696c:	b3cfc0ef          	jal	ra,2ca8 <fe_mul>
    6970:	00000513          	li	a0,0
    6974:	0ec12083          	lw	ra,236(sp)
    6978:	0e812403          	lw	s0,232(sp)
    697c:	0e412483          	lw	s1,228(sp)
    6980:	0e012903          	lw	s2,224(sp)
    6984:	0dc12983          	lw	s3,220(sp)
    6988:	0d812a03          	lw	s4,216(sp)
    698c:	0d412a83          	lw	s5,212(sp)
    6990:	0f010113          	addi	sp,sp,240
    6994:	00008067          	ret
    6998:	00040593          	mv	a1,s0
    699c:	00040513          	mv	a0,s0
    69a0:	f24fd0ef          	jal	ra,40c4 <fe_neg>
    69a4:	fbdff06f          	j	6960 <ge_frombytes_negate_vartime+0x184>
    69a8:	fff00513          	li	a0,-1
    69ac:	fc9ff06f          	j	6974 <ge_frombytes_negate_vartime+0x198>

000069b0 <ge_madd>:
    69b0:	fb010113          	addi	sp,sp,-80
    69b4:	04812423          	sw	s0,72(sp)
    69b8:	03312e23          	sw	s3,60(sp)
    69bc:	00058413          	mv	s0,a1
    69c0:	02858993          	addi	s3,a1,40
    69c4:	03512a23          	sw	s5,52(sp)
    69c8:	00098593          	mv	a1,s3
    69cc:	00060a93          	mv	s5,a2
    69d0:	00040613          	mv	a2,s0
    69d4:	04112623          	sw	ra,76(sp)
    69d8:	04912223          	sw	s1,68(sp)
    69dc:	05212023          	sw	s2,64(sp)
    69e0:	03412c23          	sw	s4,56(sp)
    69e4:	02850493          	addi	s1,a0,40
    69e8:	00050913          	mv	s2,a0
    69ec:	a25fb0ef          	jal	ra,2410 <fe_add>
    69f0:	00040613          	mv	a2,s0
    69f4:	00098593          	mv	a1,s3
    69f8:	00048513          	mv	a0,s1
    69fc:	c54ff0ef          	jal	ra,5e50 <fe_sub>
    6a00:	05090993          	addi	s3,s2,80
    6a04:	000a8613          	mv	a2,s5
    6a08:	00090593          	mv	a1,s2
    6a0c:	00098513          	mv	a0,s3
    6a10:	a98fc0ef          	jal	ra,2ca8 <fe_mul>
    6a14:	028a8613          	addi	a2,s5,40
    6a18:	00048593          	mv	a1,s1
    6a1c:	00048513          	mv	a0,s1
    6a20:	a88fc0ef          	jal	ra,2ca8 <fe_mul>
    6a24:	07890a13          	addi	s4,s2,120
    6a28:	07840613          	addi	a2,s0,120
    6a2c:	050a8593          	addi	a1,s5,80
    6a30:	000a0513          	mv	a0,s4
    6a34:	a74fc0ef          	jal	ra,2ca8 <fe_mul>
    6a38:	05040613          	addi	a2,s0,80
    6a3c:	00810413          	addi	s0,sp,8
    6a40:	00060593          	mv	a1,a2
    6a44:	00040513          	mv	a0,s0
    6a48:	9c9fb0ef          	jal	ra,2410 <fe_add>
    6a4c:	00048613          	mv	a2,s1
    6a50:	00098593          	mv	a1,s3
    6a54:	00090513          	mv	a0,s2
    6a58:	bf8ff0ef          	jal	ra,5e50 <fe_sub>
    6a5c:	00048613          	mv	a2,s1
    6a60:	00098593          	mv	a1,s3
    6a64:	00048513          	mv	a0,s1
    6a68:	9a9fb0ef          	jal	ra,2410 <fe_add>
    6a6c:	000a0613          	mv	a2,s4
    6a70:	00040593          	mv	a1,s0
    6a74:	00098513          	mv	a0,s3
    6a78:	999fb0ef          	jal	ra,2410 <fe_add>
    6a7c:	000a0613          	mv	a2,s4
    6a80:	00040593          	mv	a1,s0
    6a84:	000a0513          	mv	a0,s4
    6a88:	bc8ff0ef          	jal	ra,5e50 <fe_sub>
    6a8c:	04c12083          	lw	ra,76(sp)
    6a90:	04812403          	lw	s0,72(sp)
    6a94:	04412483          	lw	s1,68(sp)
    6a98:	04012903          	lw	s2,64(sp)
    6a9c:	03c12983          	lw	s3,60(sp)
    6aa0:	03812a03          	lw	s4,56(sp)
    6aa4:	03412a83          	lw	s5,52(sp)
    6aa8:	05010113          	addi	sp,sp,80
    6aac:	00008067          	ret

00006ab0 <ge_msub>:
    6ab0:	fb010113          	addi	sp,sp,-80
    6ab4:	04812423          	sw	s0,72(sp)
    6ab8:	03312e23          	sw	s3,60(sp)
    6abc:	00058413          	mv	s0,a1
    6ac0:	02858993          	addi	s3,a1,40
    6ac4:	05212023          	sw	s2,64(sp)
    6ac8:	03512a23          	sw	s5,52(sp)
    6acc:	00050913          	mv	s2,a0
    6ad0:	00060a93          	mv	s5,a2
    6ad4:	00098593          	mv	a1,s3
    6ad8:	00040613          	mv	a2,s0
    6adc:	04112623          	sw	ra,76(sp)
    6ae0:	04912223          	sw	s1,68(sp)
    6ae4:	03412c23          	sw	s4,56(sp)
    6ae8:	02890493          	addi	s1,s2,40
    6aec:	925fb0ef          	jal	ra,2410 <fe_add>
    6af0:	00040613          	mv	a2,s0
    6af4:	00098593          	mv	a1,s3
    6af8:	00048513          	mv	a0,s1
    6afc:	b54ff0ef          	jal	ra,5e50 <fe_sub>
    6b00:	05090993          	addi	s3,s2,80
    6b04:	028a8613          	addi	a2,s5,40
    6b08:	00090593          	mv	a1,s2
    6b0c:	00098513          	mv	a0,s3
    6b10:	998fc0ef          	jal	ra,2ca8 <fe_mul>
    6b14:	000a8613          	mv	a2,s5
    6b18:	00048593          	mv	a1,s1
    6b1c:	00048513          	mv	a0,s1
    6b20:	988fc0ef          	jal	ra,2ca8 <fe_mul>
    6b24:	07890a13          	addi	s4,s2,120
    6b28:	07840613          	addi	a2,s0,120
    6b2c:	050a8593          	addi	a1,s5,80
    6b30:	000a0513          	mv	a0,s4
    6b34:	974fc0ef          	jal	ra,2ca8 <fe_mul>
    6b38:	05040613          	addi	a2,s0,80
    6b3c:	00810413          	addi	s0,sp,8
    6b40:	00060593          	mv	a1,a2
    6b44:	00040513          	mv	a0,s0
    6b48:	8c9fb0ef          	jal	ra,2410 <fe_add>
    6b4c:	00048613          	mv	a2,s1
    6b50:	00098593          	mv	a1,s3
    6b54:	00090513          	mv	a0,s2
    6b58:	af8ff0ef          	jal	ra,5e50 <fe_sub>
    6b5c:	00048613          	mv	a2,s1
    6b60:	00098593          	mv	a1,s3
    6b64:	00048513          	mv	a0,s1
    6b68:	8a9fb0ef          	jal	ra,2410 <fe_add>
    6b6c:	000a0613          	mv	a2,s4
    6b70:	00040593          	mv	a1,s0
    6b74:	00098513          	mv	a0,s3
    6b78:	ad8ff0ef          	jal	ra,5e50 <fe_sub>
    6b7c:	000a0613          	mv	a2,s4
    6b80:	00040593          	mv	a1,s0
    6b84:	000a0513          	mv	a0,s4
    6b88:	889fb0ef          	jal	ra,2410 <fe_add>
    6b8c:	04c12083          	lw	ra,76(sp)
    6b90:	04812403          	lw	s0,72(sp)
    6b94:	04412483          	lw	s1,68(sp)
    6b98:	04012903          	lw	s2,64(sp)
    6b9c:	03c12983          	lw	s3,60(sp)
    6ba0:	03812a03          	lw	s4,56(sp)
    6ba4:	03412a83          	lw	s5,52(sp)
    6ba8:	05010113          	addi	sp,sp,80
    6bac:	00008067          	ret

00006bb0 <ge_p1p1_to_p2>:
    6bb0:	fe010113          	addi	sp,sp,-32
    6bb4:	01312623          	sw	s3,12(sp)
    6bb8:	07858993          	addi	s3,a1,120
    6bbc:	00098613          	mv	a2,s3
    6bc0:	00112e23          	sw	ra,28(sp)
    6bc4:	00812c23          	sw	s0,24(sp)
    6bc8:	00912a23          	sw	s1,20(sp)
    6bcc:	01212823          	sw	s2,16(sp)
    6bd0:	00050493          	mv	s1,a0
    6bd4:	05058913          	addi	s2,a1,80
    6bd8:	00058413          	mv	s0,a1
    6bdc:	8ccfc0ef          	jal	ra,2ca8 <fe_mul>
    6be0:	02848513          	addi	a0,s1,40
    6be4:	00090613          	mv	a2,s2
    6be8:	02840593          	addi	a1,s0,40
    6bec:	8bcfc0ef          	jal	ra,2ca8 <fe_mul>
    6bf0:	01812403          	lw	s0,24(sp)
    6bf4:	01c12083          	lw	ra,28(sp)
    6bf8:	00098613          	mv	a2,s3
    6bfc:	00090593          	mv	a1,s2
    6c00:	00c12983          	lw	s3,12(sp)
    6c04:	01012903          	lw	s2,16(sp)
    6c08:	05048513          	addi	a0,s1,80
    6c0c:	01412483          	lw	s1,20(sp)
    6c10:	02010113          	addi	sp,sp,32
    6c14:	894fc06f          	j	2ca8 <fe_mul>

00006c18 <ge_p1p1_to_p3>:
    6c18:	fe010113          	addi	sp,sp,-32
    6c1c:	01412423          	sw	s4,8(sp)
    6c20:	07858a13          	addi	s4,a1,120
    6c24:	00812c23          	sw	s0,24(sp)
    6c28:	000a0613          	mv	a2,s4
    6c2c:	00058413          	mv	s0,a1
    6c30:	00112e23          	sw	ra,28(sp)
    6c34:	00912a23          	sw	s1,20(sp)
    6c38:	01212823          	sw	s2,16(sp)
    6c3c:	01312623          	sw	s3,12(sp)
    6c40:	00050493          	mv	s1,a0
    6c44:	02858913          	addi	s2,a1,40
    6c48:	05040993          	addi	s3,s0,80
    6c4c:	85cfc0ef          	jal	ra,2ca8 <fe_mul>
    6c50:	02848513          	addi	a0,s1,40
    6c54:	00098613          	mv	a2,s3
    6c58:	00090593          	mv	a1,s2
    6c5c:	84cfc0ef          	jal	ra,2ca8 <fe_mul>
    6c60:	000a0613          	mv	a2,s4
    6c64:	00098593          	mv	a1,s3
    6c68:	05048513          	addi	a0,s1,80
    6c6c:	83cfc0ef          	jal	ra,2ca8 <fe_mul>
    6c70:	00040593          	mv	a1,s0
    6c74:	01812403          	lw	s0,24(sp)
    6c78:	01c12083          	lw	ra,28(sp)
    6c7c:	00c12983          	lw	s3,12(sp)
    6c80:	00812a03          	lw	s4,8(sp)
    6c84:	00090613          	mv	a2,s2
    6c88:	07848513          	addi	a0,s1,120
    6c8c:	01012903          	lw	s2,16(sp)
    6c90:	01412483          	lw	s1,20(sp)
    6c94:	02010113          	addi	sp,sp,32
    6c98:	810fc06f          	j	2ca8 <fe_mul>

00006c9c <ge_p2_0>:
    6c9c:	ff010113          	addi	sp,sp,-16
    6ca0:	00112623          	sw	ra,12(sp)
    6ca4:	00812423          	sw	s0,8(sp)
    6ca8:	00050413          	mv	s0,a0
    6cac:	f08fb0ef          	jal	ra,23b4 <fe_0>
    6cb0:	02840513          	addi	a0,s0,40
    6cb4:	f2cfb0ef          	jal	ra,23e0 <fe_1>
    6cb8:	05040513          	addi	a0,s0,80
    6cbc:	00812403          	lw	s0,8(sp)
    6cc0:	00c12083          	lw	ra,12(sp)
    6cc4:	01010113          	addi	sp,sp,16
    6cc8:	f18fb06f          	j	23e0 <fe_1>

00006ccc <ge_p2_dbl>:
    6ccc:	fb010113          	addi	sp,sp,-80
    6cd0:	05212023          	sw	s2,64(sp)
    6cd4:	00058913          	mv	s2,a1
    6cd8:	04112623          	sw	ra,76(sp)
    6cdc:	04812423          	sw	s0,72(sp)
    6ce0:	04912223          	sw	s1,68(sp)
    6ce4:	03312e23          	sw	s3,60(sp)
    6ce8:	03412c23          	sw	s4,56(sp)
    6cec:	03512a23          	sw	s5,52(sp)
    6cf0:	00050413          	mv	s0,a0
    6cf4:	05050493          	addi	s1,a0,80
    6cf8:	02890a93          	addi	s5,s2,40
    6cfc:	c44fd0ef          	jal	ra,4140 <fe_sq>
    6d00:	000a8593          	mv	a1,s5
    6d04:	00048513          	mv	a0,s1
    6d08:	c38fd0ef          	jal	ra,4140 <fe_sq>
    6d0c:	07840a13          	addi	s4,s0,120
    6d10:	05090593          	addi	a1,s2,80
    6d14:	000a0513          	mv	a0,s4
    6d18:	c58fe0ef          	jal	ra,5170 <fe_sq2>
    6d1c:	02840993          	addi	s3,s0,40
    6d20:	000a8613          	mv	a2,s5
    6d24:	00090593          	mv	a1,s2
    6d28:	00098513          	mv	a0,s3
    6d2c:	ee4fb0ef          	jal	ra,2410 <fe_add>
    6d30:	00810913          	addi	s2,sp,8
    6d34:	00098593          	mv	a1,s3
    6d38:	00090513          	mv	a0,s2
    6d3c:	c04fd0ef          	jal	ra,4140 <fe_sq>
    6d40:	00040613          	mv	a2,s0
    6d44:	00048593          	mv	a1,s1
    6d48:	00098513          	mv	a0,s3
    6d4c:	ec4fb0ef          	jal	ra,2410 <fe_add>
    6d50:	00040613          	mv	a2,s0
    6d54:	00048593          	mv	a1,s1
    6d58:	00048513          	mv	a0,s1
    6d5c:	8f4ff0ef          	jal	ra,5e50 <fe_sub>
    6d60:	00098613          	mv	a2,s3
    6d64:	00090593          	mv	a1,s2
    6d68:	00040513          	mv	a0,s0
    6d6c:	8e4ff0ef          	jal	ra,5e50 <fe_sub>
    6d70:	00048613          	mv	a2,s1
    6d74:	000a0593          	mv	a1,s4
    6d78:	000a0513          	mv	a0,s4
    6d7c:	8d4ff0ef          	jal	ra,5e50 <fe_sub>
    6d80:	04c12083          	lw	ra,76(sp)
    6d84:	04812403          	lw	s0,72(sp)
    6d88:	04412483          	lw	s1,68(sp)
    6d8c:	04012903          	lw	s2,64(sp)
    6d90:	03c12983          	lw	s3,60(sp)
    6d94:	03812a03          	lw	s4,56(sp)
    6d98:	03412a83          	lw	s5,52(sp)
    6d9c:	05010113          	addi	sp,sp,80
    6da0:	00008067          	ret

00006da4 <ge_p3_0>:
    6da4:	ff010113          	addi	sp,sp,-16
    6da8:	00112623          	sw	ra,12(sp)
    6dac:	00812423          	sw	s0,8(sp)
    6db0:	00050413          	mv	s0,a0
    6db4:	e00fb0ef          	jal	ra,23b4 <fe_0>
    6db8:	02840513          	addi	a0,s0,40
    6dbc:	e24fb0ef          	jal	ra,23e0 <fe_1>
    6dc0:	05040513          	addi	a0,s0,80
    6dc4:	e1cfb0ef          	jal	ra,23e0 <fe_1>
    6dc8:	07840513          	addi	a0,s0,120
    6dcc:	00812403          	lw	s0,8(sp)
    6dd0:	00c12083          	lw	ra,12(sp)
    6dd4:	01010113          	addi	sp,sp,16
    6dd8:	ddcfb06f          	j	23b4 <fe_0>

00006ddc <ge_p3_to_cached>:
    6ddc:	ff010113          	addi	sp,sp,-16
    6de0:	01212023          	sw	s2,0(sp)
    6de4:	02858913          	addi	s2,a1,40
    6de8:	00812423          	sw	s0,8(sp)
    6dec:	00058613          	mv	a2,a1
    6df0:	00058413          	mv	s0,a1
    6df4:	00090593          	mv	a1,s2
    6df8:	00112623          	sw	ra,12(sp)
    6dfc:	00912223          	sw	s1,4(sp)
    6e00:	00050493          	mv	s1,a0
    6e04:	e0cfb0ef          	jal	ra,2410 <fe_add>
    6e08:	00040613          	mv	a2,s0
    6e0c:	00090593          	mv	a1,s2
    6e10:	02848513          	addi	a0,s1,40
    6e14:	83cff0ef          	jal	ra,5e50 <fe_sub>
    6e18:	05040593          	addi	a1,s0,80
    6e1c:	05048513          	addi	a0,s1,80
    6e20:	9ddfb0ef          	jal	ra,27fc <fe_copy>
    6e24:	07840593          	addi	a1,s0,120
    6e28:	00812403          	lw	s0,8(sp)
    6e2c:	00c12083          	lw	ra,12(sp)
    6e30:	00012903          	lw	s2,0(sp)
    6e34:	07848513          	addi	a0,s1,120
    6e38:	00412483          	lw	s1,4(sp)
    6e3c:	00001617          	auipc	a2,0x1
    6e40:	8b060613          	addi	a2,a2,-1872 # 76ec <d2>
    6e44:	01010113          	addi	sp,sp,16
    6e48:	e61fb06f          	j	2ca8 <fe_mul>

00006e4c <ge_p3_to_p2>:
    6e4c:	ff010113          	addi	sp,sp,-16
    6e50:	00112623          	sw	ra,12(sp)
    6e54:	00812423          	sw	s0,8(sp)
    6e58:	00912223          	sw	s1,4(sp)
    6e5c:	00050413          	mv	s0,a0
    6e60:	00058493          	mv	s1,a1
    6e64:	999fb0ef          	jal	ra,27fc <fe_copy>
    6e68:	02848593          	addi	a1,s1,40
    6e6c:	02840513          	addi	a0,s0,40
    6e70:	98dfb0ef          	jal	ra,27fc <fe_copy>
    6e74:	05040513          	addi	a0,s0,80
    6e78:	00812403          	lw	s0,8(sp)
    6e7c:	00c12083          	lw	ra,12(sp)
    6e80:	05048593          	addi	a1,s1,80
    6e84:	00412483          	lw	s1,4(sp)
    6e88:	01010113          	addi	sp,sp,16
    6e8c:	971fb06f          	j	27fc <fe_copy>

00006e90 <ge_p3_dbl>:
    6e90:	f7010113          	addi	sp,sp,-144
    6e94:	08812423          	sw	s0,136(sp)
    6e98:	00810413          	addi	s0,sp,8
    6e9c:	08912223          	sw	s1,132(sp)
    6ea0:	00050493          	mv	s1,a0
    6ea4:	00040513          	mv	a0,s0
    6ea8:	08112623          	sw	ra,140(sp)
    6eac:	fa1ff0ef          	jal	ra,6e4c <ge_p3_to_p2>
    6eb0:	00040593          	mv	a1,s0
    6eb4:	00048513          	mv	a0,s1
    6eb8:	e15ff0ef          	jal	ra,6ccc <ge_p2_dbl>
    6ebc:	08c12083          	lw	ra,140(sp)
    6ec0:	08812403          	lw	s0,136(sp)
    6ec4:	08412483          	lw	s1,132(sp)
    6ec8:	09010113          	addi	sp,sp,144
    6ecc:	00008067          	ret

00006ed0 <ge_p3_tobytes>:
    6ed0:	f6010113          	addi	sp,sp,-160
    6ed4:	08812c23          	sw	s0,152(sp)
    6ed8:	00810413          	addi	s0,sp,8
    6edc:	09212823          	sw	s2,144(sp)
    6ee0:	09312623          	sw	s3,140(sp)
    6ee4:	00050913          	mv	s2,a0
    6ee8:	00058993          	mv	s3,a1
    6eec:	00040513          	mv	a0,s0
    6ef0:	05058593          	addi	a1,a1,80
    6ef4:	08112e23          	sw	ra,156(sp)
    6ef8:	08912a23          	sw	s1,148(sp)
    6efc:	dd5fd0ef          	jal	ra,4cd0 <fe_invert>
    6f00:	03010493          	addi	s1,sp,48
    6f04:	00040613          	mv	a2,s0
    6f08:	00098593          	mv	a1,s3
    6f0c:	00048513          	mv	a0,s1
    6f10:	d99fb0ef          	jal	ra,2ca8 <fe_mul>
    6f14:	00040613          	mv	a2,s0
    6f18:	05810413          	addi	s0,sp,88
    6f1c:	02898593          	addi	a1,s3,40
    6f20:	00040513          	mv	a0,s0
    6f24:	d85fb0ef          	jal	ra,2ca8 <fe_mul>
    6f28:	00040593          	mv	a1,s0
    6f2c:	00090513          	mv	a0,s2
    6f30:	804ff0ef          	jal	ra,5f34 <fe_tobytes>
    6f34:	00048513          	mv	a0,s1
    6f38:	b80ff0ef          	jal	ra,62b8 <fe_isnegative>
    6f3c:	01f94783          	lbu	a5,31(s2)
    6f40:	00751513          	slli	a0,a0,0x7
    6f44:	00f54533          	xor	a0,a0,a5
    6f48:	00a90fa3          	sb	a0,31(s2)
    6f4c:	09c12083          	lw	ra,156(sp)
    6f50:	09812403          	lw	s0,152(sp)
    6f54:	09412483          	lw	s1,148(sp)
    6f58:	09012903          	lw	s2,144(sp)
    6f5c:	08c12983          	lw	s3,140(sp)
    6f60:	0a010113          	addi	sp,sp,160
    6f64:	00008067          	ret

00006f68 <ge_scalarmult_base>:
    6f68:	e0010113          	addi	sp,sp,-512
    6f6c:	1f312623          	sw	s3,492(sp)
    6f70:	00010993          	mv	s3,sp
    6f74:	1e812c23          	sw	s0,504(sp)
    6f78:	1f212823          	sw	s2,496(sp)
    6f7c:	1f412423          	sw	s4,488(sp)
    6f80:	1e112e23          	sw	ra,508(sp)
    6f84:	1e912a23          	sw	s1,500(sp)
    6f88:	1f512223          	sw	s5,484(sp)
    6f8c:	1f612023          	sw	s6,480(sp)
    6f90:	1d712e23          	sw	s7,476(sp)
    6f94:	00050913          	mv	s2,a0
    6f98:	04010a13          	addi	s4,sp,64
    6f9c:	00098413          	mv	s0,s3
    6fa0:	0005c783          	lbu	a5,0(a1)
    6fa4:	00240413          	addi	s0,s0,2
    6fa8:	00158593          	addi	a1,a1,1
    6fac:	00f7f713          	andi	a4,a5,15
    6fb0:	0047d793          	srli	a5,a5,0x4
    6fb4:	fee40f23          	sb	a4,-2(s0)
    6fb8:	fef40fa3          	sb	a5,-1(s0)
    6fbc:	fe8a12e3          	bne	s4,s0,6fa0 <ge_scalarmult_base+0x38>
    6fc0:	03f98513          	addi	a0,s3,63
    6fc4:	00098713          	mv	a4,s3
    6fc8:	00000793          	li	a5,0
    6fcc:	00074683          	lbu	a3,0(a4)
    6fd0:	00170713          	addi	a4,a4,1
    6fd4:	00d787b3          	add	a5,a5,a3
    6fd8:	0ff7f693          	andi	a3,a5,255
    6fdc:	00868793          	addi	a5,a3,8
    6fe0:	01879793          	slli	a5,a5,0x18
    6fe4:	4187d793          	srai	a5,a5,0x18
    6fe8:	4047d793          	srai	a5,a5,0x4
    6fec:	0ff7f613          	andi	a2,a5,255
    6ff0:	00461593          	slli	a1,a2,0x4
    6ff4:	40b686b3          	sub	a3,a3,a1
    6ff8:	fed70fa3          	sb	a3,-1(a4)
    6ffc:	fce518e3          	bne	a0,a4,6fcc <ge_scalarmult_base+0x64>
    7000:	03f14783          	lbu	a5,63(sp)
    7004:	00090513          	mv	a0,s2
    7008:	00110493          	addi	s1,sp,1
    700c:	00f60633          	add	a2,a2,a5
    7010:	02c10fa3          	sb	a2,63(sp)
    7014:	04198b93          	addi	s7,s3,65
    7018:	d8dff0ef          	jal	ra,6da4 <ge_p3_0>
    701c:	0b810b13          	addi	s6,sp,184
    7020:	13010a93          	addi	s5,sp,304
    7024:	00048603          	lb	a2,0(s1)
    7028:	413485b3          	sub	a1,s1,s3
    702c:	4015d593          	srai	a1,a1,0x1
    7030:	000b0513          	mv	a0,s6
    7034:	d08ff0ef          	jal	ra,653c <select>
    7038:	00090593          	mv	a1,s2
    703c:	000a8513          	mv	a0,s5
    7040:	000b0613          	mv	a2,s6
    7044:	96dff0ef          	jal	ra,69b0 <ge_madd>
    7048:	00248493          	addi	s1,s1,2
    704c:	000a8593          	mv	a1,s5
    7050:	00090513          	mv	a0,s2
    7054:	bc5ff0ef          	jal	ra,6c18 <ge_p1p1_to_p3>
    7058:	fd7496e3          	bne	s1,s7,7024 <ge_scalarmult_base+0xbc>
    705c:	00090593          	mv	a1,s2
    7060:	000a8513          	mv	a0,s5
    7064:	e2dff0ef          	jal	ra,6e90 <ge_p3_dbl>
    7068:	000a8593          	mv	a1,s5
    706c:	000a0513          	mv	a0,s4
    7070:	b41ff0ef          	jal	ra,6bb0 <ge_p1p1_to_p2>
    7074:	000a0593          	mv	a1,s4
    7078:	000a8513          	mv	a0,s5
    707c:	c51ff0ef          	jal	ra,6ccc <ge_p2_dbl>
    7080:	000a8593          	mv	a1,s5
    7084:	000a0513          	mv	a0,s4
    7088:	b29ff0ef          	jal	ra,6bb0 <ge_p1p1_to_p2>
    708c:	000a0593          	mv	a1,s4
    7090:	000a8513          	mv	a0,s5
    7094:	c39ff0ef          	jal	ra,6ccc <ge_p2_dbl>
    7098:	000a8593          	mv	a1,s5
    709c:	000a0513          	mv	a0,s4
    70a0:	b11ff0ef          	jal	ra,6bb0 <ge_p1p1_to_p2>
    70a4:	000a0593          	mv	a1,s4
    70a8:	000a8513          	mv	a0,s5
    70ac:	c21ff0ef          	jal	ra,6ccc <ge_p2_dbl>
    70b0:	000a8593          	mv	a1,s5
    70b4:	00090513          	mv	a0,s2
    70b8:	b61ff0ef          	jal	ra,6c18 <ge_p1p1_to_p3>
    70bc:	00098493          	mv	s1,s3
    70c0:	00048603          	lb	a2,0(s1)
    70c4:	413485b3          	sub	a1,s1,s3
    70c8:	4015d593          	srai	a1,a1,0x1
    70cc:	000b0513          	mv	a0,s6
    70d0:	c6cff0ef          	jal	ra,653c <select>
    70d4:	00090593          	mv	a1,s2
    70d8:	000a8513          	mv	a0,s5
    70dc:	000b0613          	mv	a2,s6
    70e0:	8d1ff0ef          	jal	ra,69b0 <ge_madd>
    70e4:	00248493          	addi	s1,s1,2
    70e8:	000a8593          	mv	a1,s5
    70ec:	00090513          	mv	a0,s2
    70f0:	b29ff0ef          	jal	ra,6c18 <ge_p1p1_to_p3>
    70f4:	fc8496e3          	bne	s1,s0,70c0 <ge_scalarmult_base+0x158>
    70f8:	1fc12083          	lw	ra,508(sp)
    70fc:	1f812403          	lw	s0,504(sp)
    7100:	1f412483          	lw	s1,500(sp)
    7104:	1f012903          	lw	s2,496(sp)
    7108:	1ec12983          	lw	s3,492(sp)
    710c:	1e812a03          	lw	s4,488(sp)
    7110:	1e412a83          	lw	s5,484(sp)
    7114:	1e012b03          	lw	s6,480(sp)
    7118:	1dc12b83          	lw	s7,476(sp)
    711c:	20010113          	addi	sp,sp,512
    7120:	00008067          	ret

00007124 <ge_sub>:
    7124:	fb010113          	addi	sp,sp,-80
    7128:	04912223          	sw	s1,68(sp)
    712c:	03312e23          	sw	s3,60(sp)
    7130:	00058493          	mv	s1,a1
    7134:	02858993          	addi	s3,a1,40
    7138:	04812423          	sw	s0,72(sp)
    713c:	03412c23          	sw	s4,56(sp)
    7140:	00050413          	mv	s0,a0
    7144:	00060a13          	mv	s4,a2
    7148:	00098593          	mv	a1,s3
    714c:	00048613          	mv	a2,s1
    7150:	04112623          	sw	ra,76(sp)
    7154:	05212023          	sw	s2,64(sp)
    7158:	03512a23          	sw	s5,52(sp)
    715c:	02840913          	addi	s2,s0,40
    7160:	ab0fb0ef          	jal	ra,2410 <fe_add>
    7164:	00048613          	mv	a2,s1
    7168:	00098593          	mv	a1,s3
    716c:	00090513          	mv	a0,s2
    7170:	ce1fe0ef          	jal	ra,5e50 <fe_sub>
    7174:	05040993          	addi	s3,s0,80
    7178:	028a0613          	addi	a2,s4,40
    717c:	00040593          	mv	a1,s0
    7180:	00098513          	mv	a0,s3
    7184:	b25fb0ef          	jal	ra,2ca8 <fe_mul>
    7188:	000a0613          	mv	a2,s4
    718c:	00090593          	mv	a1,s2
    7190:	00090513          	mv	a0,s2
    7194:	b15fb0ef          	jal	ra,2ca8 <fe_mul>
    7198:	07840a93          	addi	s5,s0,120
    719c:	07848613          	addi	a2,s1,120
    71a0:	078a0593          	addi	a1,s4,120
    71a4:	000a8513          	mv	a0,s5
    71a8:	b01fb0ef          	jal	ra,2ca8 <fe_mul>
    71ac:	050a0613          	addi	a2,s4,80
    71b0:	05048593          	addi	a1,s1,80
    71b4:	00040513          	mv	a0,s0
    71b8:	af1fb0ef          	jal	ra,2ca8 <fe_mul>
    71bc:	00810493          	addi	s1,sp,8
    71c0:	00040613          	mv	a2,s0
    71c4:	00040593          	mv	a1,s0
    71c8:	00048513          	mv	a0,s1
    71cc:	a44fb0ef          	jal	ra,2410 <fe_add>
    71d0:	00090613          	mv	a2,s2
    71d4:	00098593          	mv	a1,s3
    71d8:	00040513          	mv	a0,s0
    71dc:	c75fe0ef          	jal	ra,5e50 <fe_sub>
    71e0:	00090613          	mv	a2,s2
    71e4:	00098593          	mv	a1,s3
    71e8:	00090513          	mv	a0,s2
    71ec:	a24fb0ef          	jal	ra,2410 <fe_add>
    71f0:	000a8613          	mv	a2,s5
    71f4:	00048593          	mv	a1,s1
    71f8:	00098513          	mv	a0,s3
    71fc:	c55fe0ef          	jal	ra,5e50 <fe_sub>
    7200:	000a8613          	mv	a2,s5
    7204:	00048593          	mv	a1,s1
    7208:	000a8513          	mv	a0,s5
    720c:	a04fb0ef          	jal	ra,2410 <fe_add>
    7210:	04c12083          	lw	ra,76(sp)
    7214:	04812403          	lw	s0,72(sp)
    7218:	04412483          	lw	s1,68(sp)
    721c:	04012903          	lw	s2,64(sp)
    7220:	03c12983          	lw	s3,60(sp)
    7224:	03812a03          	lw	s4,56(sp)
    7228:	03412a83          	lw	s5,52(sp)
    722c:	05010113          	addi	sp,sp,80
    7230:	00008067          	ret

00007234 <ge_double_scalarmult_vartime>:
    7234:	81010113          	addi	sp,sp,-2032
    7238:	7e112623          	sw	ra,2028(sp)
    723c:	7e812423          	sw	s0,2024(sp)
    7240:	7e912223          	sw	s1,2020(sp)
    7244:	7f212023          	sw	s2,2016(sp)
    7248:	7d312e23          	sw	s3,2012(sp)
    724c:	7d412c23          	sw	s4,2008(sp)
    7250:	7d512a23          	sw	s5,2004(sp)
    7254:	7d612823          	sw	s6,2000(sp)
    7258:	7d712623          	sw	s7,1996(sp)
    725c:	7d812423          	sw	s8,1992(sp)
    7260:	ee010113          	addi	sp,sp,-288
    7264:	1e010913          	addi	s2,sp,480
    7268:	00050a13          	mv	s4,a0
    726c:	00090513          	mv	a0,s2
    7270:	00068493          	mv	s1,a3
    7274:	00060b13          	mv	s6,a2
    7278:	2e010413          	addi	s0,sp,736
    727c:	984ff0ef          	jal	ra,6400 <slide>
    7280:	00048593          	mv	a1,s1
    7284:	00040513          	mv	a0,s0
    7288:	978ff0ef          	jal	ra,6400 <slide>
    728c:	3e010a93          	addi	s5,sp,992
    7290:	000b0593          	mv	a1,s6
    7294:	000a8513          	mv	a0,s5
    7298:	b45ff0ef          	jal	ra,6ddc <ge_p3_to_cached>
    729c:	00001c37          	lui	s8,0x1
    72a0:	fffff4b7          	lui	s1,0xfffff
    72a4:	8e0c0793          	addi	a5,s8,-1824 # 8e0 <_entry-0x1720>
    72a8:	002787b3          	add	a5,a5,sp
    72ac:	72048993          	addi	s3,s1,1824 # fffff720 <sanctum_sm_signature+0x7fe00600>
    72b0:	013789b3          	add	s3,a5,s3
    72b4:	000b0593          	mv	a1,s6
    72b8:	00098513          	mv	a0,s3
    72bc:	14010b13          	addi	s6,sp,320
    72c0:	bd1ff0ef          	jal	ra,6e90 <ge_p3_dbl>
    72c4:	00098593          	mv	a1,s3
    72c8:	000b0513          	mv	a0,s6
    72cc:	94dff0ef          	jal	ra,6c18 <ge_p1p1_to_p3>
    72d0:	000a8613          	mv	a2,s5
    72d4:	000b0593          	mv	a1,s6
    72d8:	00098513          	mv	a0,s3
    72dc:	bf0ff0ef          	jal	ra,66cc <ge_add>
    72e0:	8e0c0793          	addi	a5,s8,-1824
    72e4:	002787b3          	add	a5,a5,sp
    72e8:	7c048493          	addi	s1,s1,1984
    72ec:	009784b3          	add	s1,a5,s1
    72f0:	00098593          	mv	a1,s3
    72f4:	00048513          	mv	a0,s1
    72f8:	921ff0ef          	jal	ra,6c18 <ge_p1p1_to_p3>
    72fc:	48010b93          	addi	s7,sp,1152
    7300:	000b8513          	mv	a0,s7
    7304:	00048593          	mv	a1,s1
    7308:	ad5ff0ef          	jal	ra,6ddc <ge_p3_to_cached>
    730c:	000b8613          	mv	a2,s7
    7310:	000b0593          	mv	a1,s6
    7314:	00098513          	mv	a0,s3
    7318:	bb4ff0ef          	jal	ra,66cc <ge_add>
    731c:	00098593          	mv	a1,s3
    7320:	00048513          	mv	a0,s1
    7324:	8f5ff0ef          	jal	ra,6c18 <ge_p1p1_to_p3>
    7328:	52010b93          	addi	s7,sp,1312
    732c:	000b8513          	mv	a0,s7
    7330:	00048593          	mv	a1,s1
    7334:	aa9ff0ef          	jal	ra,6ddc <ge_p3_to_cached>
    7338:	000b8613          	mv	a2,s7
    733c:	000b0593          	mv	a1,s6
    7340:	00098513          	mv	a0,s3
    7344:	b88ff0ef          	jal	ra,66cc <ge_add>
    7348:	00098593          	mv	a1,s3
    734c:	00048513          	mv	a0,s1
    7350:	8c9ff0ef          	jal	ra,6c18 <ge_p1p1_to_p3>
    7354:	5c010b93          	addi	s7,sp,1472
    7358:	000b8513          	mv	a0,s7
    735c:	00048593          	mv	a1,s1
    7360:	a7dff0ef          	jal	ra,6ddc <ge_p3_to_cached>
    7364:	000b8613          	mv	a2,s7
    7368:	000b0593          	mv	a1,s6
    736c:	00098513          	mv	a0,s3
    7370:	b5cff0ef          	jal	ra,66cc <ge_add>
    7374:	00098593          	mv	a1,s3
    7378:	00048513          	mv	a0,s1
    737c:	89dff0ef          	jal	ra,6c18 <ge_p1p1_to_p3>
    7380:	66010b93          	addi	s7,sp,1632
    7384:	000b8513          	mv	a0,s7
    7388:	00048593          	mv	a1,s1
    738c:	a51ff0ef          	jal	ra,6ddc <ge_p3_to_cached>
    7390:	000b8613          	mv	a2,s7
    7394:	000b0593          	mv	a1,s6
    7398:	00098513          	mv	a0,s3
    739c:	b30ff0ef          	jal	ra,66cc <ge_add>
    73a0:	00098593          	mv	a1,s3
    73a4:	00048513          	mv	a0,s1
    73a8:	871ff0ef          	jal	ra,6c18 <ge_p1p1_to_p3>
    73ac:	70010b93          	addi	s7,sp,1792
    73b0:	000b8513          	mv	a0,s7
    73b4:	00048593          	mv	a1,s1
    73b8:	a25ff0ef          	jal	ra,6ddc <ge_p3_to_cached>
    73bc:	000b8613          	mv	a2,s7
    73c0:	000b0593          	mv	a1,s6
    73c4:	00098513          	mv	a0,s3
    73c8:	b04ff0ef          	jal	ra,66cc <ge_add>
    73cc:	00098593          	mv	a1,s3
    73d0:	00048513          	mv	a0,s1
    73d4:	845ff0ef          	jal	ra,6c18 <ge_p1p1_to_p3>
    73d8:	7a010b93          	addi	s7,sp,1952
    73dc:	00048593          	mv	a1,s1
    73e0:	000b8513          	mv	a0,s7
    73e4:	9f9ff0ef          	jal	ra,6ddc <ge_p3_to_cached>
    73e8:	000b8613          	mv	a2,s7
    73ec:	000b0593          	mv	a1,s6
    73f0:	00098513          	mv	a0,s3
    73f4:	ad8ff0ef          	jal	ra,66cc <ge_add>
    73f8:	00098593          	mv	a1,s3
    73fc:	00048513          	mv	a0,s1
    7400:	819ff0ef          	jal	ra,6c18 <ge_p1p1_to_p3>
    7404:	840c0793          	addi	a5,s8,-1984
    7408:	00f10533          	add	a0,sp,a5
    740c:	00048593          	mv	a1,s1
    7410:	9cdff0ef          	jal	ra,6ddc <ge_p3_to_cached>
    7414:	000a0513          	mv	a0,s4
    7418:	885ff0ef          	jal	ra,6c9c <ge_p2_0>
    741c:	2df10713          	addi	a4,sp,735
    7420:	3df10793          	addi	a5,sp,991
    7424:	00070593          	mv	a1,a4
    7428:	0140006f          	j	743c <ge_double_scalarmult_vartime+0x208>
    742c:	00078683          	lb	a3,0(a5)
    7430:	fff78793          	addi	a5,a5,-1
    7434:	00069c63          	bnez	a3,744c <ge_double_scalarmult_vartime+0x218>
    7438:	12b78663          	beq	a5,a1,7564 <ge_double_scalarmult_vartime+0x330>
    743c:	00070683          	lb	a3,0(a4)
    7440:	40878633          	sub	a2,a5,s0
    7444:	fff70713          	addi	a4,a4,-1
    7448:	fe0682e3          	beqz	a3,742c <ge_double_scalarmult_vartime+0x1f8>
    744c:	10064c63          	bltz	a2,7564 <ge_double_scalarmult_vartime+0x330>
    7450:	00001737          	lui	a4,0x1
    7454:	fffff9b7          	lui	s3,0xfffff
    7458:	8e070793          	addi	a5,a4,-1824 # 8e0 <_entry-0x1720>
    745c:	72098493          	addi	s1,s3,1824 # fffff720 <sanctum_sm_signature+0x7fe00600>
    7460:	002787b3          	add	a5,a5,sp
    7464:	009784b3          	add	s1,a5,s1
    7468:	8e070793          	addi	a5,a4,-1824
    746c:	7c098993          	addi	s3,s3,1984
    7470:	002787b3          	add	a5,a5,sp
    7474:	00c90933          	add	s2,s2,a2
    7478:	00c40433          	add	s0,s0,a2
    747c:	1df10b13          	addi	s6,sp,479
    7480:	013789b3          	add	s3,a5,s3
    7484:	00000b97          	auipc	s7,0x0
    7488:	290b8b93          	addi	s7,s7,656 # 7714 <Bi>
    748c:	0340006f          	j	74c0 <ge_double_scalarmult_vartime+0x28c>
    7490:	10079463          	bnez	a5,7598 <ge_double_scalarmult_vartime+0x364>
    7494:	00040783          	lb	a5,0(s0)
    7498:	00048593          	mv	a1,s1
    749c:	00098513          	mv	a0,s3
    74a0:	06f04e63          	bgtz	a5,751c <ge_double_scalarmult_vartime+0x2e8>
    74a4:	12079663          	bnez	a5,75d0 <ge_double_scalarmult_vartime+0x39c>
    74a8:	00048593          	mv	a1,s1
    74ac:	000a0513          	mv	a0,s4
    74b0:	fff90913          	addi	s2,s2,-1
    74b4:	efcff0ef          	jal	ra,6bb0 <ge_p1p1_to_p2>
    74b8:	fff40413          	addi	s0,s0,-1
    74bc:	0b690463          	beq	s2,s6,7564 <ge_double_scalarmult_vartime+0x330>
    74c0:	000a0593          	mv	a1,s4
    74c4:	00048513          	mv	a0,s1
    74c8:	805ff0ef          	jal	ra,6ccc <ge_p2_dbl>
    74cc:	00090783          	lb	a5,0(s2)
    74d0:	00048593          	mv	a1,s1
    74d4:	00098513          	mv	a0,s3
    74d8:	faf05ce3          	blez	a5,7490 <ge_double_scalarmult_vartime+0x25c>
    74dc:	f3cff0ef          	jal	ra,6c18 <ge_p1p1_to_p3>
    74e0:	00090783          	lb	a5,0(s2)
    74e4:	00098593          	mv	a1,s3
    74e8:	00048513          	mv	a0,s1
    74ec:	01f7d613          	srli	a2,a5,0x1f
    74f0:	00f60633          	add	a2,a2,a5
    74f4:	40165613          	srai	a2,a2,0x1
    74f8:	00261793          	slli	a5,a2,0x2
    74fc:	00c78633          	add	a2,a5,a2
    7500:	00561613          	slli	a2,a2,0x5
    7504:	00ca8633          	add	a2,s5,a2
    7508:	9c4ff0ef          	jal	ra,66cc <ge_add>
    750c:	00040783          	lb	a5,0(s0)
    7510:	00048593          	mv	a1,s1
    7514:	00098513          	mv	a0,s3
    7518:	f8f056e3          	blez	a5,74a4 <ge_double_scalarmult_vartime+0x270>
    751c:	efcff0ef          	jal	ra,6c18 <ge_p1p1_to_p3>
    7520:	00040783          	lb	a5,0(s0)
    7524:	00098593          	mv	a1,s3
    7528:	00048513          	mv	a0,s1
    752c:	01f7d613          	srli	a2,a5,0x1f
    7530:	00f60633          	add	a2,a2,a5
    7534:	40165613          	srai	a2,a2,0x1
    7538:	00461793          	slli	a5,a2,0x4
    753c:	40c78633          	sub	a2,a5,a2
    7540:	00361613          	slli	a2,a2,0x3
    7544:	00cb8633          	add	a2,s7,a2
    7548:	c68ff0ef          	jal	ra,69b0 <ge_madd>
    754c:	00048593          	mv	a1,s1
    7550:	000a0513          	mv	a0,s4
    7554:	fff90913          	addi	s2,s2,-1
    7558:	e58ff0ef          	jal	ra,6bb0 <ge_p1p1_to_p2>
    755c:	fff40413          	addi	s0,s0,-1
    7560:	f76910e3          	bne	s2,s6,74c0 <ge_double_scalarmult_vartime+0x28c>
    7564:	12010113          	addi	sp,sp,288
    7568:	7ec12083          	lw	ra,2028(sp)
    756c:	7e812403          	lw	s0,2024(sp)
    7570:	7e412483          	lw	s1,2020(sp)
    7574:	7e012903          	lw	s2,2016(sp)
    7578:	7dc12983          	lw	s3,2012(sp)
    757c:	7d812a03          	lw	s4,2008(sp)
    7580:	7d412a83          	lw	s5,2004(sp)
    7584:	7d012b03          	lw	s6,2000(sp)
    7588:	7cc12b83          	lw	s7,1996(sp)
    758c:	7c812c03          	lw	s8,1992(sp)
    7590:	7f010113          	addi	sp,sp,2032
    7594:	00008067          	ret
    7598:	e80ff0ef          	jal	ra,6c18 <ge_p1p1_to_p3>
    759c:	00090783          	lb	a5,0(s2)
    75a0:	00098593          	mv	a1,s3
    75a4:	00048513          	mv	a0,s1
    75a8:	01f7d613          	srli	a2,a5,0x1f
    75ac:	00f60633          	add	a2,a2,a5
    75b0:	40165613          	srai	a2,a2,0x1
    75b4:	40c00633          	neg	a2,a2
    75b8:	00261793          	slli	a5,a2,0x2
    75bc:	00c78633          	add	a2,a5,a2
    75c0:	00561613          	slli	a2,a2,0x5
    75c4:	00ca8633          	add	a2,s5,a2
    75c8:	b5dff0ef          	jal	ra,7124 <ge_sub>
    75cc:	ec9ff06f          	j	7494 <ge_double_scalarmult_vartime+0x260>
    75d0:	e48ff0ef          	jal	ra,6c18 <ge_p1p1_to_p3>
    75d4:	00040783          	lb	a5,0(s0)
    75d8:	00098593          	mv	a1,s3
    75dc:	00048513          	mv	a0,s1
    75e0:	01f7d613          	srli	a2,a5,0x1f
    75e4:	00f60633          	add	a2,a2,a5
    75e8:	40165613          	srai	a2,a2,0x1
    75ec:	00461793          	slli	a5,a2,0x4
    75f0:	40f60633          	sub	a2,a2,a5
    75f4:	00361613          	slli	a2,a2,0x3
    75f8:	00cb8633          	add	a2,s7,a2
    75fc:	cb4ff0ef          	jal	ra,6ab0 <ge_msub>
    7600:	ea9ff06f          	j	74a8 <ge_double_scalarmult_vartime+0x274>

00007604 <ge_tobytes>:
    7604:	f6010113          	addi	sp,sp,-160
    7608:	08812c23          	sw	s0,152(sp)
    760c:	00810413          	addi	s0,sp,8
    7610:	09212823          	sw	s2,144(sp)
    7614:	09312623          	sw	s3,140(sp)
    7618:	00050913          	mv	s2,a0
    761c:	00058993          	mv	s3,a1
    7620:	00040513          	mv	a0,s0
    7624:	05058593          	addi	a1,a1,80
    7628:	08112e23          	sw	ra,156(sp)
    762c:	08912a23          	sw	s1,148(sp)
    7630:	ea0fd0ef          	jal	ra,4cd0 <fe_invert>
    7634:	03010493          	addi	s1,sp,48
    7638:	00040613          	mv	a2,s0
    763c:	00098593          	mv	a1,s3
    7640:	00048513          	mv	a0,s1
    7644:	e64fb0ef          	jal	ra,2ca8 <fe_mul>
    7648:	00040613          	mv	a2,s0
    764c:	05810413          	addi	s0,sp,88
    7650:	02898593          	addi	a1,s3,40
    7654:	00040513          	mv	a0,s0
    7658:	e50fb0ef          	jal	ra,2ca8 <fe_mul>
    765c:	00040593          	mv	a1,s0
    7660:	00090513          	mv	a0,s2
    7664:	8d1fe0ef          	jal	ra,5f34 <fe_tobytes>
    7668:	00048513          	mv	a0,s1
    766c:	c4dfe0ef          	jal	ra,62b8 <fe_isnegative>
    7670:	01f94783          	lbu	a5,31(s2)
    7674:	00751513          	slli	a0,a0,0x7
    7678:	00f54533          	xor	a0,a0,a5
    767c:	00a90fa3          	sb	a0,31(s2)
    7680:	09c12083          	lw	ra,156(sp)
    7684:	09812403          	lw	s0,152(sp)
    7688:	09412483          	lw	s1,148(sp)
    768c:	09012903          	lw	s2,144(sp)
    7690:	08c12983          	lw	s3,140(sp)
    7694:	0a010113          	addi	sp,sp,160
    7698:	00008067          	ret

0000769c <d>:
    769c:	ff5978b6 00d37285 ff156ebd 006a0a0f     .xY..r...n....j.
    76ac:	0001c029 ff79e898 ffa03cbc ffce7199     ).....y..<...q..
    76bc:	fee2b700 ff480db4                       ......H.

000076c4 <sqrtm1>:
    76c4:	fe0ea0b0 ff86c9d3 008f189e 0035697f     .............i5.
    76d4:	00bd0c60 fffbd7a7 fe804c9f ffe1656a     `........L..je..
    76e4:	0004fc1e 00ae0c92                       ........

000076ec <d2>:
    76ec:	feb2f159 ffa6e50a fe2add7b 00d4141e     Y.......{.*.....
    76fc:	00038052 00f3d130 ff407977 ff9ce332     R...0...wy@.2...
    770c:	01c56e00 00901b67                       .n..g...

00007714 <Bi>:
    7714:	018c3b85 ff24f1bd 01c325f8 0037dc60     .;....$..%..`.7.
    7724:	ff3e4cb7 003d42c3 01a44c32 ff4ca4e1     .L>..B=.2L....L.
    7734:	ffa33d4c 001f3e75 ff409151 000e4176     L=..u>..Q.@.vA..
    7744:	ffd673a2 002e8a06 fff4e67c 008f8a0a     .s......|.......
    7754:	00c21a34 004cf4b8 01298f81 ff13f4be     4.....L...).....
    7764:	ff7aaa7b 00448162 0093d579 ff1e6556     {.z.b.D.y...Ve..
    7774:	009b67a1 ff43598c 01bee5ef 00b50b43     .g...YC.....C...
    7784:	fe89f0c6 ffbc45ee 00ee9743 ff6c2a13     .....E..C....*l.
    7794:	017155e5 ff874432 00096a11 ff016732     .Uq.2D...j..2g..
    77a4:	01a80150 ff1e9823 01b9a810 ffe85938     P...#.......8Y..
    77b4:	00fcd265 0047fa29 ff4faacc ffef2e0e     e...).G...O.....
    77c4:	00ef4d50 ff4bd6bd 00f98d11 ff4c5026     PM....K.....&PL.
    77d4:	007555be 00aae456 01d0d89c ffa4cfc3     .Uu.V...........
    77e4:	ff4c4296 ff10e1af 0162508d 00f2db4c     .BL......Pb.L...
    77f4:	0072a2c6 0098da2e fef12b9b ff68a09b     ..r......+....h.
    7804:	00a5bb33 00af1102 01a05442 001e3af7     3.......BT...:..
    7814:	fe354123 00bfec45 01f5862d 00dd7ba3     #A5.E...-....{..
    7824:	ff146e20 00a51734 0047d6ba 0060b0e9      n..4.....G...`.
    7834:	0136eff2 008a5939 ff540053 0064a088     ..6.9Y..S.T...d.
    7844:	fe788e5c 00be7c68 ff3eb1b5 005529fa     \.x.h|....>..)U.
    7854:	012a8298 00f6fc60 fe3f9797 003e85ef     ..*.`.....?...>.
    7864:	009c3820 ffbda72d 01b3858e 00d35683      8..-........V..
    7874:	fe96b3bb ff0eaafa 004ea3d2 00973425     ..........N.%4..
    7884:	001a4d63 ffd59cee 01d1c0d5 00542e49     cM..........I.T.
    7894:	01294114 004fce36 fe9283c9 ff186faa     .A).6.O......o..
    78a4:	fe3221b1 ffcb26ab 0074f74e 0099ddd1     .!2..&..N.t.....
    78b4:	01b28085 00192c3a 013b27c9 00fc13bd     ....:,...';.....
    78c4:	01d2e531 0075bb75 01b8b3b5 00db7200     1...u.u......r..
    78d4:	00935e30 003829f5 fecc0d7d 0077adf4     0^...)8.}.....w.
    78e4:	fe20dd2c 0014ea54 01c6a0f9 ffea7eec     ,. .T........~..
    78f4:	fea8632f ff99e2aa 00d8b366 ff7a8de2     /c......f.....z.
    7904:	fe99427a 0086f5b6 0119e4e3 ffeb39d6     zB...........9..
    7914:	ff38add8 00d2e7b5 ff9d8077 ff885f81     ..8.....w...._..
    7924:	00337e6e ffb7a902 fe628207 ff5eb045     n~3.......b.E.^.
    7934:	01e30474 ff91f2d9 011fadca ff270169     t...........i.'.
    7944:	0045af2e ff3a2fe4 fe45e0d7 ff4538cf     ..E../:...E..8E.
    7954:	ff8bfe10 ffd4cf17 ff7e14ca ff60d55f     ..........~._.`.
    7964:	0021b009 ffcf05c8 fe802af1 ffc02123     ..!......*..#!..
    7974:	01c4e5f8 00781181 ff9767fb ff703407     ......x..g...4p.
    7984:	ff42388c fff5e228 fe2546d9 ff09d6ac     .8B.(....F%.....
    7994:	01864348 ffd6c092 0070262c ff4bb844     HC......,&p.D.K.
    79a4:	00fb5ace 008deb95 003aaab5 00eff474     .Z........:.t...
    79b4:	00029d5c 0062ad66 016089e9 00cb317f     \...f.b...`..1..
    79c4:	00949b05 ff099417 000c7ad3 ff1a8622     .........z.."...
    79d4:	0088ccdb ff290886 fe2b53e0 00f71955     ......)..S+.U...
    79e4:	fe007f6d 003088a9 ffdb77ee 00d5ade7     m.....0..w......
    79f4:	fefe12ce ff07ba08 0107097e 00482a6f     ........~...o*H.
    7a04:	feec346f 008d3f60 fe7fbf93 ffc04ecd     o4..`?.......N..
    7a14:	01ed6a0e 004cdbbb febbf3af 00ad5969     .j....L.....iY..
    7a24:	01591955 0094f3a2 fed17602 00099e21     U.Y......v..!...
    7a34:	ff2ea38b 0028465d fe8e2a6c ff8efc6f     ....]F(.l*..o...
    7a44:	0090df9b ffa7e533 ff9bfc49 ff0c745e     ....3...I...^t..
    7a54:	ffdaa098 ff25ee9c ffcfeab3 ffb300c5     ......%.........
    7a64:	008da49a 0068c4e1 fe19230a fff2d4d1     ......h..#......
    7a74:	fedefd61 00e565b8 017f12de ff8788a4     a....e..........
    7a84:	fe8ccf1e 00f36192 fe1ac081 ff2154c9     .....a.......T!.
    7a94:	ff4e0a6f ffb25193 00180404 ffd7eea1     o.N..Q..........
    7aa4:	00218d06 ff0ed735 ffd0b529 009d8be7     ..!.5...).......
    7ab4:	ffddcbb3 0071b9ff fface2bd ffd64271     ......q.....qB..
    7ac4:	ff2d3eca ff084066 fe10ae4e ff447585     .>-.f@..N....uD.

00007ad4 <base>:
    7ad4:	018c3b85 ff24f1bd 01c325f8 0037dc60     .;....$..%..`.7.
    7ae4:	ff3e4cb7 003d42c3 01a44c32 ff4ca4e1     .L>..B=.2L....L.
    7af4:	ffa33d4c 001f3e75 ff409151 000e4176     L=..u>..Q.@.vA..
    7b04:	ffd673a2 002e8a06 fff4e67c 008f8a0a     .s......|.......
    7b14:	00c21a34 004cf4b8 01298f81 ff13f4be     4.....L...).....
    7b24:	ff7aaa7b 00448162 0093d579 ff1e6556     {.z.b.D.y...Ve..
    7b34:	009b67a1 ff43598c 01bee5ef 00b50b43     .g...YC.....C...
    7b44:	fe89f0c6 ffbc45ee ff3c71ea ff39ff25     .....E...q<.%.9.
    7b54:	feb6b245 00b3d080 fe7d1a76 ffd60703     E.......v.}.....
    7b64:	ff4d32f1 ffc5cb55 fffa87d3 ff643019     .2M.U........0d.
    7b74:	feb4d5bb 00695811 019ed153 00627305     .....Xi.S....sb.
    7b84:	fe3cae04 ff6e37ab ff11b5d9 00aabc14     ..<..7n.........
    7b94:	fe669c92 ffaed657 019b7a72 00aa2ce9     ..f.W...rz...,..
    7ba4:	01ef087f 00eaecd6 00db05af ff3d6a31     ............1j=.
    7bb4:	ffd04206 ff6e6a02 ff13ea51 ffc06bd7     .B...jn.Q....k..
    7bc4:	00ee9743 ff6c2a13 017155e5 ff874432     C....*l..Uq.2D..
    7bd4:	00096a11 ff016732 01a80150 ff1e9823     .j..2g..P...#...
    7be4:	01b9a810 ffe85938 00fcd265 0047fa29     ....8Y..e...).G.
    7bf4:	ff4faacc ffef2e0e 00ef4d50 ff4bd6bd     ..O.....PM....K.
    7c04:	00f98d11 ff4c5026 007555be 00aae456     ....&PL..Uu.V...
    7c14:	01d0d89c ffa4cfc3 ff4c4296 ff10e1af     .........BL.....
    7c24:	0162508d 00f2db4c 0072a2c6 0098da2e     .Pb.L.....r.....
    7c34:	fef12b9b ff68a09b fefc09b2 00d46e64     .+....h.....dn..
    7c44:	00a7050e ffa3efe9 019d971c ff0a9265     ............e...
    7c54:	fe469efe 00e4f947 00321e58 ffa03a44     ..F.G...X.2.D:..
    7c64:	016818bf ff814281 ff5532c0 ff8ab308     ..h..B...2U.....
    7c74:	00c9fa26 00a05073 0071e683 0093587d     &...sP....q.}X..
    7c84:	00c7445a 009e4cfd 0076ff1c 00fefa71     ZD...L....v.q...
    7c94:	002e4b42 002bdae6 01ba78e5 002b4494     BK....+..x...D+.
    7ca4:	01ee7c88 ffc56bbb fff63554 fffe7433     .|...k..T5..3t..
    7cb4:	00a5bb33 00af1102 01a05442 001e3af7     3.......BT...:..
    7cc4:	fe354123 00bfec45 01f5862d 00dd7ba3     #A5.E...-....{..
    7cd4:	ff146e20 00a51734 0047d6ba 0060b0e9      n..4.....G...`.
    7ce4:	0136eff2 008a5939 ff540053 0064a088     ..6.9Y..S.T...d.
    7cf4:	fe788e5c 00be7c68 ff3eb1b5 005529fa     \.x.h|....>..)U.
    7d04:	012a8298 00f6fc60 fe3f9797 003e85ef     ..*.`.....?...>.
    7d14:	009c3820 ffbda72d 01b3858e 00d35683      8..-........V..
    7d24:	fe96b3bb ff0eaafa ff157144 ff3bbade     ........Dq....;.
    7d34:	01f10742 00480645 fe6c9c56 0059a737     B...E.H.V.l.7.Y.
    7d44:	fedb346d ff17b00d ff6a2cc4 ff4795ef     m4.......,j...G.
    7d54:	ff7d8ca4 0001ad9f 00e72933 00213e91     ..}.....3)...>!.
    7d64:	015d6f8a 004553b9 002e7390 ff109761     .o]..SE..s..a...
    7d74:	001ae418 00e2d931 feea4b71 ff0c99c1     ....1...qK......
    7d84:	ff6030b6 001a0d0e fef9c380 003bc145     .0`.........E.;.
    7d94:	fe512584 003c6a7d 01a9f0d6 0042e3a4     .%Q.}j<.......B.
    7da4:	004ea3d2 00973425 001a4d63 ffd59cee     ..N.%4..cM......
    7db4:	01d1c0d5 00542e49 01294114 004fce36     ....I.T..A).6.O.
    7dc4:	fe9283c9 ff186faa fe3221b1 ffcb26ab     .....o...!2..&..
    7dd4:	0074f74e 0099ddd1 01b28085 00192c3a     N.t.........:,..
    7de4:	013b27c9 00fc13bd 01d2e531 0075bb75     .';.....1...u.u.
    7df4:	01b8b3b5 00db7200 00935e30 003829f5     .....r..0^...)8.
    7e04:	fecc0d7d 0077adf4 fe20dd2c 0014ea54     }.....w.,. .T...
    7e14:	01c6a0f9 ffea7eec 00dd3e8f ffd65981     .....~...>...Y..
    7e24:	fe058b37 ffbf1444 01b2cc0e 00d9c323     7...D.......#...
    7e34:	01ce332f 00a5f626 fe061bce 0024579e     /3..&........W$.
    7e44:	ff9234d9 ffd77b7d ff1f3c55 00070dab     .4..}{..U<......
    7e54:	fe58f5da 003c23fc ffa0d637 00386585     ..X..#<.7....e8.
    7e64:	fe1320e0 00ea4093 01a2911a 007d7672     . ...@......rv}.
    7e74:	00fafcf8 ffc45e65 fee28dc6 00b62a33     ....e^......3*..
    7e84:	fe090c87 ffd2ac6d 01c2ecc5 009a41f1     ....m........A..
    7e94:	ff2f9c30 ff374399 fe22a5da 00b3b44a     0./..C7...".J...
    7ea4:	014742da 00637a58 ffdbb5d4 ffe72a5c     .BG.Xzc.....\*..
    7eb4:	009a00ef ffb74df5 01aa515e 00d8d512     .....M..^Q......
    7ec4:	00475dab 00f85e34 fea19712 ff42d1c5     .]G.4^........B.
    7ed4:	fe0ff4ae 00b730a2 fef03d31 00c35db6     .....0..1=...]..
    7ee4:	0106e4c7 ff1105c8 ffed2d89 0004946c     .........-..l...
    7ef4:	ffed4f5a ff4d3f27 01cf5235 ff76168e     ZO..'?M.5R....v.
    7f04:	0112e865 00431a5c ff58c805 ff8aa821     e...\.C...X.!...
    7f14:	0048e195 ff1bd102 01a8f52c ff11eddc     ..H.....,.......
    7f24:	fe69d31e 00ddee8d fef55080 000efe6f     ..i......P..o...
    7f34:	01be5fde 00f109df ffd44c92 ff68cd6c     ._.......L..l.h.
    7f44:	0099753f 00304590 006fe423 ffc121c0     ?u...E0.#.o..!..
    7f54:	febed670 00979873 00586617 00f84a33     p...s....fX.3J..
    7f64:	fe8fc7e2 ff65a2cc 01bd61d0 001268f5     ......e..a...h..
    7f74:	ff1ef6e6 00459417 fe34586e ff59b5e2     ......E.nX4...Y.
    7f84:	fe5a2fd0 ff50a172 00f87421 ff5798b3     ./Z.r.P.!t....W.
    7f94:	01b19045 ff1aee58 0171203a 00454d01     E...X...: q..ME.
    7fa4:	ff34793b 0053ee98 00c10834 ffe927e7     ;y4...S.4....'..
    7fb4:	008a22c7 00ad44de fef2395b ff7fd2dc     ."...D..[9......
    7fc4:	fef607c0 00bb2397 00a5ecc3 00ce5d6f     .....#......o]..
    7fd4:	0185f7d4 ffd1859a 000ae79b 00264e40     ............@N&.
    7fe4:	0164f97a ff61131e 01f95b3e 004d85f8     z.d...a.>[....M.
    7ff4:	fea83fc5 00520a74 fe71ecb8 ffc2cbd4     .?..t.R...q.....
    8004:	fefc643d ffca0524 ff995b77 001d4f81     =d..$...w[...O..
    8014:	feab6767 ff6fd7ed 004535d8 0017f0ef     gg....o..5E.....
    8024:	ffdd95c2 00dee126 feb4ffe8 ff855276     ....&.......vR..
    8034:	01b1d139 0085e88b fe2eb09e 002e73c2     9............s..
    8044:	01e5f758 00bf671c feafdedd 002ceb95     X....g........,.
    8054:	fe19e497 006769da 00d2558e ffbe8195     .....ig..U......
    8064:	fe5e41d5 ffe08675 0075c652 00dcdd9d     .A^.u...R.u.....
    8074:	002465a3 002572c5 fea6ac68 0000b60b     .e$..r%.h.......
    8084:	ffbc4851 ff10bc61 000a0645 ff9193c7     QH..a...E.......
    8094:	01730908 ffafd641 00d1add9 00a67f50     ..s.A.......P...
    80a4:	fe04e5f7 ff7cb7a7 fecc1c5a fff03baf     ......|.Z....;..
    80b4:	01f8290b ff33286c fec3b190 007efa96     .)..l(3.......~.
    80c4:	01415b8a ffde3c78 00efc1f5 ffbdd61d     .[A.x<..........
    80d4:	00190280 00a29a50 016bdc4d ff4acdea     ....P...M.k...J.
    80e4:	ff67a636 00094874 ff2f5ee4 ff19c81e     6.g.tH...^/.....
    80f4:	ff59d623 ff8cb03d ffa3e253 00ac824b     #.Y.=...S...K...
    8104:	00112680 ff98895f 019f7cd7 00005d4f     .&.._....|..O]..
    8114:	fe9d5294 fffb82c3 ff4cca28 00e07efb     .R......(.L..~..
    8124:	fe3e639d ffe107cf 00c34460 ff9dba8c     .c>.....`D......
    8134:	ffe71383 00fe802a fe3ddb34 0048cb66     ....*...4.=.f.H.
    8144:	ff0b078d 00d5a4ba 00777a1f 0091f285     .........zw.....
    8154:	ffe8fcd0 ffb6d55b fefa048f 004ad7f9     ....[.........J.
    8164:	016f1ea5 00df09ab 01227be5 ff1a825c     ..o......{".\...
    8174:	012d9b4d ff1c8bc3 004ee03b 00f71188     M.-.....;.N.....
    8184:	0020796c ffbdfa4f fefce360 003ef126     ly .O...`...&.>.
    8194:	ff7dae3e ff5d6f9b 01cee60a ff28c561     >.}..o].....a.(.
